
mod_exp:     file format elf64-x86-64


Disassembly of section .init:

0000000000400c80 <_init>:
  400c80:	48 83 ec 08          	sub    $0x8,%rsp
  400c84:	48 8b 05 6d 53 20 00 	mov    0x20536d(%rip),%rax        # 605ff8 <_DYNAMIC+0x1f0>
  400c8b:	48 85 c0             	test   %rax,%rax
  400c8e:	74 05                	je     400c95 <_init+0x15>
  400c90:	e8 4b 00 00 00       	callq  400ce0 <__gmon_start__@plt>
  400c95:	48 83 c4 08          	add    $0x8,%rsp
  400c99:	c3                   	retq   

Disassembly of section .plt:

0000000000400ca0 <_ZSt20__throw_length_errorPKc@plt-0x10>:
  400ca0:	ff 35 62 53 20 00    	pushq  0x205362(%rip)        # 606008 <_GLOBAL_OFFSET_TABLE_+0x8>
  400ca6:	ff 25 64 53 20 00    	jmpq   *0x205364(%rip)        # 606010 <_GLOBAL_OFFSET_TABLE_+0x10>
  400cac:	0f 1f 40 00          	nopl   0x0(%rax)

0000000000400cb0 <_ZSt20__throw_length_errorPKc@plt>:
  400cb0:	ff 25 62 53 20 00    	jmpq   *0x205362(%rip)        # 606018 <_GLOBAL_OFFSET_TABLE_+0x18>
  400cb6:	68 00 00 00 00       	pushq  $0x0
  400cbb:	e9 e0 ff ff ff       	jmpq   400ca0 <_init+0x20>

0000000000400cc0 <_ZNSolsEl@plt>:
  400cc0:	ff 25 5a 53 20 00    	jmpq   *0x20535a(%rip)        # 606020 <_GLOBAL_OFFSET_TABLE_+0x20>
  400cc6:	68 01 00 00 00       	pushq  $0x1
  400ccb:	e9 d0 ff ff ff       	jmpq   400ca0 <_init+0x20>

0000000000400cd0 <_ZNSolsEi@plt>:
  400cd0:	ff 25 52 53 20 00    	jmpq   *0x205352(%rip)        # 606028 <_GLOBAL_OFFSET_TABLE_+0x28>
  400cd6:	68 02 00 00 00       	pushq  $0x2
  400cdb:	e9 c0 ff ff ff       	jmpq   400ca0 <_init+0x20>

0000000000400ce0 <__gmon_start__@plt>:
  400ce0:	ff 25 4a 53 20 00    	jmpq   *0x20534a(%rip)        # 606030 <_GLOBAL_OFFSET_TABLE_+0x30>
  400ce6:	68 03 00 00 00       	pushq  $0x3
  400ceb:	e9 b0 ff ff ff       	jmpq   400ca0 <_init+0x20>

0000000000400cf0 <_ZdlPv@plt>:
  400cf0:	ff 25 42 53 20 00    	jmpq   *0x205342(%rip)        # 606038 <_GLOBAL_OFFSET_TABLE_+0x38>
  400cf6:	68 04 00 00 00       	pushq  $0x4
  400cfb:	e9 a0 ff ff ff       	jmpq   400ca0 <_init+0x20>

0000000000400d00 <__assert_fail@plt>:
  400d00:	ff 25 3a 53 20 00    	jmpq   *0x20533a(%rip)        # 606040 <_GLOBAL_OFFSET_TABLE_+0x40>
  400d06:	68 05 00 00 00       	pushq  $0x5
  400d0b:	e9 90 ff ff ff       	jmpq   400ca0 <_init+0x20>

0000000000400d10 <gettimeofday@plt>:
  400d10:	ff 25 32 53 20 00    	jmpq   *0x205332(%rip)        # 606048 <_GLOBAL_OFFSET_TABLE_+0x48>
  400d16:	68 06 00 00 00       	pushq  $0x6
  400d1b:	e9 80 ff ff ff       	jmpq   400ca0 <_init+0x20>

0000000000400d20 <__cxa_rethrow@plt>:
  400d20:	ff 25 2a 53 20 00    	jmpq   *0x20532a(%rip)        # 606050 <_GLOBAL_OFFSET_TABLE_+0x50>
  400d26:	68 07 00 00 00       	pushq  $0x7
  400d2b:	e9 70 ff ff ff       	jmpq   400ca0 <_init+0x20>

0000000000400d30 <_ZNSt8ios_base4InitC1Ev@plt>:
  400d30:	ff 25 22 53 20 00    	jmpq   *0x205322(%rip)        # 606058 <_GLOBAL_OFFSET_TABLE_+0x58>
  400d36:	68 08 00 00 00       	pushq  $0x8
  400d3b:	e9 60 ff ff ff       	jmpq   400ca0 <_init+0x20>

0000000000400d40 <fopen@plt>:
  400d40:	ff 25 1a 53 20 00    	jmpq   *0x20531a(%rip)        # 606060 <_GLOBAL_OFFSET_TABLE_+0x60>
  400d46:	68 09 00 00 00       	pushq  $0x9
  400d4b:	e9 50 ff ff ff       	jmpq   400ca0 <_init+0x20>

0000000000400d50 <__libc_start_main@plt>:
  400d50:	ff 25 12 53 20 00    	jmpq   *0x205312(%rip)        # 606068 <_GLOBAL_OFFSET_TABLE_+0x68>
  400d56:	68 0a 00 00 00       	pushq  $0xa
  400d5b:	e9 40 ff ff ff       	jmpq   400ca0 <_init+0x20>

0000000000400d60 <__cxa_atexit@plt>:
  400d60:	ff 25 0a 53 20 00    	jmpq   *0x20530a(%rip)        # 606070 <_GLOBAL_OFFSET_TABLE_+0x70>
  400d66:	68 0b 00 00 00       	pushq  $0xb
  400d6b:	e9 30 ff ff ff       	jmpq   400ca0 <_init+0x20>

0000000000400d70 <fgets@plt>:
  400d70:	ff 25 02 53 20 00    	jmpq   *0x205302(%rip)        # 606078 <_GLOBAL_OFFSET_TABLE_+0x78>
  400d76:	68 0c 00 00 00       	pushq  $0xc
  400d7b:	e9 20 ff ff ff       	jmpq   400ca0 <_init+0x20>

0000000000400d80 <_ZNSt8ios_base4InitD1Ev@plt>:
  400d80:	ff 25 fa 52 20 00    	jmpq   *0x2052fa(%rip)        # 606080 <_GLOBAL_OFFSET_TABLE_+0x80>
  400d86:	68 0d 00 00 00       	pushq  $0xd
  400d8b:	e9 10 ff ff ff       	jmpq   400ca0 <_init+0x20>

0000000000400d90 <_ZStlsISt11char_traitsIcEERSt13basic_ostreamIcT_ES5_PKc@plt>:
  400d90:	ff 25 f2 52 20 00    	jmpq   *0x2052f2(%rip)        # 606088 <_GLOBAL_OFFSET_TABLE_+0x88>
  400d96:	68 0e 00 00 00       	pushq  $0xe
  400d9b:	e9 00 ff ff ff       	jmpq   400ca0 <_init+0x20>

0000000000400da0 <_ZNSolsEm@plt>:
  400da0:	ff 25 ea 52 20 00    	jmpq   *0x2052ea(%rip)        # 606090 <_GLOBAL_OFFSET_TABLE_+0x90>
  400da6:	68 0f 00 00 00       	pushq  $0xf
  400dab:	e9 f0 fe ff ff       	jmpq   400ca0 <_init+0x20>

0000000000400db0 <atol@plt>:
  400db0:	ff 25 e2 52 20 00    	jmpq   *0x2052e2(%rip)        # 606098 <_GLOBAL_OFFSET_TABLE_+0x98>
  400db6:	68 10 00 00 00       	pushq  $0x10
  400dbb:	e9 e0 fe ff ff       	jmpq   400ca0 <_init+0x20>

0000000000400dc0 <atoi@plt>:
  400dc0:	ff 25 da 52 20 00    	jmpq   *0x2052da(%rip)        # 6060a0 <_GLOBAL_OFFSET_TABLE_+0xa0>
  400dc6:	68 11 00 00 00       	pushq  $0x11
  400dcb:	e9 d0 fe ff ff       	jmpq   400ca0 <_init+0x20>

0000000000400dd0 <memmove@plt>:
  400dd0:	ff 25 d2 52 20 00    	jmpq   *0x2052d2(%rip)        # 6060a8 <_GLOBAL_OFFSET_TABLE_+0xa8>
  400dd6:	68 12 00 00 00       	pushq  $0x12
  400ddb:	e9 c0 fe ff ff       	jmpq   400ca0 <_init+0x20>

0000000000400de0 <__stack_chk_fail@plt>:
  400de0:	ff 25 ca 52 20 00    	jmpq   *0x2052ca(%rip)        # 6060b0 <_GLOBAL_OFFSET_TABLE_+0xb0>
  400de6:	68 13 00 00 00       	pushq  $0x13
  400deb:	e9 b0 fe ff ff       	jmpq   400ca0 <_init+0x20>

0000000000400df0 <feof@plt>:
  400df0:	ff 25 c2 52 20 00    	jmpq   *0x2052c2(%rip)        # 6060b8 <_GLOBAL_OFFSET_TABLE_+0xb8>
  400df6:	68 14 00 00 00       	pushq  $0x14
  400dfb:	e9 a0 fe ff ff       	jmpq   400ca0 <_init+0x20>

0000000000400e00 <_ZNSolsEPFRSoS_E@plt>:
  400e00:	ff 25 ba 52 20 00    	jmpq   *0x2052ba(%rip)        # 6060c0 <_GLOBAL_OFFSET_TABLE_+0xc0>
  400e06:	68 15 00 00 00       	pushq  $0x15
  400e0b:	e9 90 fe ff ff       	jmpq   400ca0 <_init+0x20>

0000000000400e10 <fclose@plt>:
  400e10:	ff 25 b2 52 20 00    	jmpq   *0x2052b2(%rip)        # 6060c8 <_GLOBAL_OFFSET_TABLE_+0xc8>
  400e16:	68 16 00 00 00       	pushq  $0x16
  400e1b:	e9 80 fe ff ff       	jmpq   400ca0 <_init+0x20>

0000000000400e20 <__cxa_end_catch@plt>:
  400e20:	ff 25 aa 52 20 00    	jmpq   *0x2052aa(%rip)        # 6060d0 <_GLOBAL_OFFSET_TABLE_+0xd0>
  400e26:	68 17 00 00 00       	pushq  $0x17
  400e2b:	e9 70 fe ff ff       	jmpq   400ca0 <_init+0x20>

0000000000400e30 <_ZSt17__throw_bad_allocv@plt>:
  400e30:	ff 25 a2 52 20 00    	jmpq   *0x2052a2(%rip)        # 6060d8 <_GLOBAL_OFFSET_TABLE_+0xd8>
  400e36:	68 18 00 00 00       	pushq  $0x18
  400e3b:	e9 60 fe ff ff       	jmpq   400ca0 <_init+0x20>

0000000000400e40 <_ZSt4endlIcSt11char_traitsIcEERSt13basic_ostreamIT_T0_ES6_@plt>:
  400e40:	ff 25 9a 52 20 00    	jmpq   *0x20529a(%rip)        # 6060e0 <_GLOBAL_OFFSET_TABLE_+0xe0>
  400e46:	68 19 00 00 00       	pushq  $0x19
  400e4b:	e9 50 fe ff ff       	jmpq   400ca0 <_init+0x20>

0000000000400e50 <__cxa_begin_catch@plt>:
  400e50:	ff 25 92 52 20 00    	jmpq   *0x205292(%rip)        # 6060e8 <_GLOBAL_OFFSET_TABLE_+0xe8>
  400e56:	68 1a 00 00 00       	pushq  $0x1a
  400e5b:	e9 40 fe ff ff       	jmpq   400ca0 <_init+0x20>

0000000000400e60 <__gxx_personality_v0@plt>:
  400e60:	ff 25 8a 52 20 00    	jmpq   *0x20528a(%rip)        # 6060f0 <_GLOBAL_OFFSET_TABLE_+0xf0>
  400e66:	68 1b 00 00 00       	pushq  $0x1b
  400e6b:	e9 30 fe ff ff       	jmpq   400ca0 <_init+0x20>

0000000000400e70 <_Znwm@plt>:
  400e70:	ff 25 82 52 20 00    	jmpq   *0x205282(%rip)        # 6060f8 <_GLOBAL_OFFSET_TABLE_+0xf8>
  400e76:	68 1c 00 00 00       	pushq  $0x1c
  400e7b:	e9 20 fe ff ff       	jmpq   400ca0 <_init+0x20>

0000000000400e80 <_Unwind_Resume@plt>:
  400e80:	ff 25 7a 52 20 00    	jmpq   *0x20527a(%rip)        # 606100 <_GLOBAL_OFFSET_TABLE_+0x100>
  400e86:	68 1d 00 00 00       	pushq  $0x1d
  400e8b:	e9 10 fe ff ff       	jmpq   400ca0 <_init+0x20>

Disassembly of section .text:

0000000000400e90 <_start>:
  400e90:	31 ed                	xor    %ebp,%ebp
  400e92:	49 89 d1             	mov    %rdx,%r9
  400e95:	5e                   	pop    %rsi
  400e96:	48 89 e2             	mov    %rsp,%rdx
  400e99:	48 83 e4 f0          	and    $0xfffffffffffffff0,%rsp
  400e9d:	50                   	push   %rax
  400e9e:	54                   	push   %rsp
  400e9f:	49 c7 c0 d0 3f 40 00 	mov    $0x403fd0,%r8
  400ea6:	48 c7 c1 60 3f 40 00 	mov    $0x403f60,%rcx
  400ead:	48 c7 c7 7d 0f 40 00 	mov    $0x400f7d,%rdi
  400eb4:	e8 97 fe ff ff       	callq  400d50 <__libc_start_main@plt>
  400eb9:	f4                   	hlt    
  400eba:	66 0f 1f 44 00 00    	nopw   0x0(%rax,%rax,1)

0000000000400ec0 <deregister_tm_clones>:
  400ec0:	b8 1f 61 60 00       	mov    $0x60611f,%eax
  400ec5:	55                   	push   %rbp
  400ec6:	48 2d 18 61 60 00    	sub    $0x606118,%rax
  400ecc:	48 83 f8 0e          	cmp    $0xe,%rax
  400ed0:	48 89 e5             	mov    %rsp,%rbp
  400ed3:	77 02                	ja     400ed7 <deregister_tm_clones+0x17>
  400ed5:	5d                   	pop    %rbp
  400ed6:	c3                   	retq   
  400ed7:	b8 00 00 00 00       	mov    $0x0,%eax
  400edc:	48 85 c0             	test   %rax,%rax
  400edf:	74 f4                	je     400ed5 <deregister_tm_clones+0x15>
  400ee1:	5d                   	pop    %rbp
  400ee2:	bf 18 61 60 00       	mov    $0x606118,%edi
  400ee7:	ff e0                	jmpq   *%rax
  400ee9:	0f 1f 80 00 00 00 00 	nopl   0x0(%rax)

0000000000400ef0 <register_tm_clones>:
  400ef0:	b8 18 61 60 00       	mov    $0x606118,%eax
  400ef5:	55                   	push   %rbp
  400ef6:	48 2d 18 61 60 00    	sub    $0x606118,%rax
  400efc:	48 c1 f8 03          	sar    $0x3,%rax
  400f00:	48 89 e5             	mov    %rsp,%rbp
  400f03:	48 89 c2             	mov    %rax,%rdx
  400f06:	48 c1 ea 3f          	shr    $0x3f,%rdx
  400f0a:	48 01 d0             	add    %rdx,%rax
  400f0d:	48 d1 f8             	sar    %rax
  400f10:	75 02                	jne    400f14 <register_tm_clones+0x24>
  400f12:	5d                   	pop    %rbp
  400f13:	c3                   	retq   
  400f14:	ba 00 00 00 00       	mov    $0x0,%edx
  400f19:	48 85 d2             	test   %rdx,%rdx
  400f1c:	74 f4                	je     400f12 <register_tm_clones+0x22>
  400f1e:	5d                   	pop    %rbp
  400f1f:	48 89 c6             	mov    %rax,%rsi
  400f22:	bf 18 61 60 00       	mov    $0x606118,%edi
  400f27:	ff e2                	jmpq   *%rdx
  400f29:	0f 1f 80 00 00 00 00 	nopl   0x0(%rax)

0000000000400f30 <__do_global_dtors_aux>:
  400f30:	80 3d f9 52 20 00 00 	cmpb   $0x0,0x2052f9(%rip)        # 606230 <completed.6973>
  400f37:	75 11                	jne    400f4a <__do_global_dtors_aux+0x1a>
  400f39:	55                   	push   %rbp
  400f3a:	48 89 e5             	mov    %rsp,%rbp
  400f3d:	e8 7e ff ff ff       	callq  400ec0 <deregister_tm_clones>
  400f42:	5d                   	pop    %rbp
  400f43:	c6 05 e6 52 20 00 01 	movb   $0x1,0x2052e6(%rip)        # 606230 <completed.6973>
  400f4a:	f3 c3                	repz retq 
  400f4c:	0f 1f 40 00          	nopl   0x0(%rax)

0000000000400f50 <frame_dummy>:
  400f50:	48 83 3d a8 4e 20 00 	cmpq   $0x0,0x204ea8(%rip)        # 605e00 <__JCR_END__>
  400f57:	00 
  400f58:	74 1e                	je     400f78 <frame_dummy+0x28>
  400f5a:	b8 00 00 00 00       	mov    $0x0,%eax
  400f5f:	48 85 c0             	test   %rax,%rax
  400f62:	74 14                	je     400f78 <frame_dummy+0x28>
  400f64:	55                   	push   %rbp
  400f65:	bf 00 5e 60 00       	mov    $0x605e00,%edi
  400f6a:	48 89 e5             	mov    %rsp,%rbp
  400f6d:	ff d0                	callq  *%rax
  400f6f:	5d                   	pop    %rbp
  400f70:	e9 7b ff ff ff       	jmpq   400ef0 <register_tm_clones>
  400f75:	0f 1f 00             	nopl   (%rax)
  400f78:	e9 73 ff ff ff       	jmpq   400ef0 <register_tm_clones>

0000000000400f7d <main>:
  400f7d:	55                   	push   %rbp
  400f7e:	48 89 e5             	mov    %rsp,%rbp
  400f81:	41 54                	push   %r12
  400f83:	53                   	push   %rbx
  400f84:	48 81 ec 20 05 00 00 	sub    $0x520,%rsp
  400f8b:	89 bd dc fa ff ff    	mov    %edi,-0x524(%rbp)
  400f91:	48 89 b5 d0 fa ff ff 	mov    %rsi,-0x530(%rbp)
  400f98:	64 48 8b 04 25 28 00 	mov    %fs:0x28,%rax
  400f9f:	00 00 
  400fa1:	48 89 45 e8          	mov    %rax,-0x18(%rbp)
  400fa5:	31 c0                	xor    %eax,%eax
  400fa7:	48 8d 85 a0 fb ff ff 	lea    -0x460(%rbp),%rax
  400fae:	48 89 c7             	mov    %rax,%rdi
  400fb1:	e8 fa 0c 00 00       	callq  401cb0 <_ZNSt6vectorIS_ImSaImEESaIS1_EEC1Ev>
  400fb6:	83 bd dc fa ff ff 04 	cmpl   $0x4,-0x524(%rbp)
  400fbd:	74 42                	je     401001 <main+0x84>
  400fbf:	be 00 40 40 00       	mov    $0x404000,%esi
  400fc4:	bf 20 61 60 00       	mov    $0x606120,%edi
  400fc9:	e8 c2 fd ff ff       	callq  400d90 <_ZStlsISt11char_traitsIcEERSt13basic_ostreamIcT_ES5_PKc@plt>
  400fce:	be 40 0e 40 00       	mov    $0x400e40,%esi
  400fd3:	48 89 c7             	mov    %rax,%rdi
  400fd6:	e8 25 fe ff ff       	callq  400e00 <_ZNSolsEPFRSoS_E@plt>
  400fdb:	be 20 40 40 00       	mov    $0x404020,%esi
  400fe0:	bf 20 61 60 00       	mov    $0x606120,%edi
  400fe5:	e8 a6 fd ff ff       	callq  400d90 <_ZStlsISt11char_traitsIcEERSt13basic_ostreamIcT_ES5_PKc@plt>
  400fea:	be 40 0e 40 00       	mov    $0x400e40,%esi
  400fef:	48 89 c7             	mov    %rax,%rdi
  400ff2:	e8 09 fe ff ff       	callq  400e00 <_ZNSolsEPFRSoS_E@plt>
  400ff7:	bb 01 00 00 00       	mov    $0x1,%ebx
  400ffc:	e9 ea 07 00 00       	jmpq   4017eb <main+0x86e>
  401001:	48 8b 85 d0 fa ff ff 	mov    -0x530(%rbp),%rax
  401008:	48 83 c0 08          	add    $0x8,%rax
  40100c:	48 8b 00             	mov    (%rax),%rax
  40100f:	be 5c 40 40 00       	mov    $0x40405c,%esi
  401014:	48 89 c7             	mov    %rax,%rdi
  401017:	e8 24 fd ff ff       	callq  400d40 <fopen@plt>
  40101c:	48 89 85 18 fb ff ff 	mov    %rax,-0x4e8(%rbp)
  401023:	48 8b 95 18 fb ff ff 	mov    -0x4e8(%rbp),%rdx
  40102a:	48 8d 85 e0 fe ff ff 	lea    -0x120(%rbp),%rax
  401031:	be 00 01 00 00       	mov    $0x100,%esi
  401036:	48 89 c7             	mov    %rax,%rdi
  401039:	e8 32 fd ff ff       	callq  400d70 <fgets@plt>
  40103e:	48 8b 85 18 fb ff ff 	mov    -0x4e8(%rbp),%rax
  401045:	48 89 c7             	mov    %rax,%rdi
  401048:	e8 a3 fd ff ff       	callq  400df0 <feof@plt>
  40104d:	85 c0                	test   %eax,%eax
  40104f:	0f 95 c0             	setne  %al
  401052:	84 c0                	test   %al,%al
  401054:	74 14                	je     40106a <main+0xed>
  401056:	48 8b 85 18 fb ff ff 	mov    -0x4e8(%rbp),%rax
  40105d:	48 89 c7             	mov    %rax,%rdi
  401060:	e8 ab fd ff ff       	callq  400e10 <fclose@plt>
  401065:	e9 0b 02 00 00       	jmpq   401275 <main+0x2f8>
  40106a:	c7 85 ec fa ff ff 00 	movl   $0x0,-0x514(%rbp)
  401071:	00 00 00 
  401074:	c7 85 f0 fa ff ff 00 	movl   $0x0,-0x510(%rbp)
  40107b:	00 00 00 
  40107e:	c7 85 f4 fa ff ff 00 	movl   $0x0,-0x50c(%rbp)
  401085:	00 00 00 
  401088:	e9 9f 00 00 00       	jmpq   40112c <main+0x1af>
  40108d:	8b 85 f4 fa ff ff    	mov    -0x50c(%rbp),%eax
  401093:	48 98                	cltq   
  401095:	0f b6 84 05 e0 fe ff 	movzbl -0x120(%rbp,%rax,1),%eax
  40109c:	ff 
  40109d:	3c 2c                	cmp    $0x2c,%al
  40109f:	75 44                	jne    4010e5 <main+0x168>
  4010a1:	8b 85 f0 fa ff ff    	mov    -0x510(%rbp),%eax
  4010a7:	48 98                	cltq   
  4010a9:	8b 95 ec fa ff ff    	mov    -0x514(%rbp),%edx
  4010af:	48 63 d2             	movslq %edx,%rdx
  4010b2:	48 c1 e2 08          	shl    $0x8,%rdx
  4010b6:	48 8d 5d f0          	lea    -0x10(%rbp),%rbx
  4010ba:	48 01 da             	add    %rbx,%rdx
  4010bd:	48 01 d0             	add    %rdx,%rax
  4010c0:	48 2d 10 04 00 00    	sub    $0x410,%rax
  4010c6:	c6 00 00             	movb   $0x0,(%rax)
  4010c9:	83 85 ec fa ff ff 01 	addl   $0x1,-0x514(%rbp)
  4010d0:	c7 85 f0 fa ff ff 00 	movl   $0x0,-0x510(%rbp)
  4010d7:	00 00 00 
  4010da:	83 bd ec fa ff ff 02 	cmpl   $0x2,-0x514(%rbp)
  4010e1:	7e 42                	jle    401125 <main+0x1a8>
  4010e3:	eb 5f                	jmp    401144 <main+0x1c7>
  4010e5:	8b 85 f4 fa ff ff    	mov    -0x50c(%rbp),%eax
  4010eb:	48 98                	cltq   
  4010ed:	0f b6 84 05 e0 fe ff 	movzbl -0x120(%rbp,%rax,1),%eax
  4010f4:	ff 
  4010f5:	8b 95 f0 fa ff ff    	mov    -0x510(%rbp),%edx
  4010fb:	48 63 d2             	movslq %edx,%rdx
  4010fe:	8b 8d ec fa ff ff    	mov    -0x514(%rbp),%ecx
  401104:	48 63 c9             	movslq %ecx,%rcx
  401107:	48 c1 e1 08          	shl    $0x8,%rcx
  40110b:	48 8d 5d f0          	lea    -0x10(%rbp),%rbx
  40110f:	48 01 d9             	add    %rbx,%rcx
  401112:	48 01 ca             	add    %rcx,%rdx
  401115:	48 81 ea 10 04 00 00 	sub    $0x410,%rdx
  40111c:	88 02                	mov    %al,(%rdx)
  40111e:	83 85 f0 fa ff ff 01 	addl   $0x1,-0x510(%rbp)
  401125:	83 85 f4 fa ff ff 01 	addl   $0x1,-0x50c(%rbp)
  40112c:	8b 85 f4 fa ff ff    	mov    -0x50c(%rbp),%eax
  401132:	48 98                	cltq   
  401134:	0f b6 84 05 e0 fe ff 	movzbl -0x120(%rbp,%rax,1),%eax
  40113b:	ff 
  40113c:	84 c0                	test   %al,%al
  40113e:	0f 85 49 ff ff ff    	jne    40108d <main+0x110>
  401144:	8b 85 f0 fa ff ff    	mov    -0x510(%rbp),%eax
  40114a:	48 98                	cltq   
  40114c:	8b 95 ec fa ff ff    	mov    -0x514(%rbp),%edx
  401152:	48 63 d2             	movslq %edx,%rdx
  401155:	48 c1 e2 08          	shl    $0x8,%rdx
  401159:	48 8d 5d f0          	lea    -0x10(%rbp),%rbx
  40115d:	48 01 da             	add    %rbx,%rdx
  401160:	48 01 d0             	add    %rdx,%rax
  401163:	48 2d 10 04 00 00    	sub    $0x410,%rax
  401169:	c6 00 00             	movb   $0x0,(%rax)
  40116c:	83 bd ec fa ff ff 02 	cmpl   $0x2,-0x514(%rbp)
  401173:	74 26                	je     40119b <main+0x21e>
  401175:	be 5e 40 40 00       	mov    $0x40405e,%esi
  40117a:	bf 20 61 60 00       	mov    $0x606120,%edi
  40117f:	e8 0c fc ff ff       	callq  400d90 <_ZStlsISt11char_traitsIcEERSt13basic_ostreamIcT_ES5_PKc@plt>
  401184:	48 8d 95 e0 fe ff ff 	lea    -0x120(%rbp),%rdx
  40118b:	48 89 d6             	mov    %rdx,%rsi
  40118e:	48 89 c7             	mov    %rax,%rdi
  401191:	e8 fa fb ff ff       	callq  400d90 <_ZStlsISt11char_traitsIcEERSt13basic_ostreamIcT_ES5_PKc@plt>
  401196:	e9 d5 00 00 00       	jmpq   401270 <main+0x2f3>
  40119b:	48 8d 85 c0 fb ff ff 	lea    -0x440(%rbp),%rax
  4011a2:	48 89 c7             	mov    %rax,%rdi
  4011a5:	e8 86 0b 00 00       	callq  401d30 <_ZNSt6vectorImSaImEEC1Ev>
  4011aa:	48 8d 85 e0 fb ff ff 	lea    -0x420(%rbp),%rax
  4011b1:	48 89 c7             	mov    %rax,%rdi
  4011b4:	e8 f7 fb ff ff       	callq  400db0 <atol@plt>
  4011b9:	48 89 85 08 fb ff ff 	mov    %rax,-0x4f8(%rbp)
  4011c0:	48 8d 95 08 fb ff ff 	lea    -0x4f8(%rbp),%rdx
  4011c7:	48 8d 85 c0 fb ff ff 	lea    -0x440(%rbp),%rax
  4011ce:	48 89 d6             	mov    %rdx,%rsi
  4011d1:	48 89 c7             	mov    %rax,%rdi
  4011d4:	e8 d7 0b 00 00       	callq  401db0 <_ZNSt6vectorImSaImEE9push_backERKm>
  4011d9:	48 8d 85 e0 fb ff ff 	lea    -0x420(%rbp),%rax
  4011e0:	48 05 00 01 00 00    	add    $0x100,%rax
  4011e6:	48 89 c7             	mov    %rax,%rdi
  4011e9:	e8 c2 fb ff ff       	callq  400db0 <atol@plt>
  4011ee:	48 89 85 08 fb ff ff 	mov    %rax,-0x4f8(%rbp)
  4011f5:	48 8d 95 08 fb ff ff 	lea    -0x4f8(%rbp),%rdx
  4011fc:	48 8d 85 c0 fb ff ff 	lea    -0x440(%rbp),%rax
  401203:	48 89 d6             	mov    %rdx,%rsi
  401206:	48 89 c7             	mov    %rax,%rdi
  401209:	e8 a2 0b 00 00       	callq  401db0 <_ZNSt6vectorImSaImEE9push_backERKm>
  40120e:	48 8d 85 e0 fb ff ff 	lea    -0x420(%rbp),%rax
  401215:	48 05 00 02 00 00    	add    $0x200,%rax
  40121b:	48 89 c7             	mov    %rax,%rdi
  40121e:	e8 8d fb ff ff       	callq  400db0 <atol@plt>
  401223:	48 89 85 08 fb ff ff 	mov    %rax,-0x4f8(%rbp)
  40122a:	48 8d 95 08 fb ff ff 	lea    -0x4f8(%rbp),%rdx
  401231:	48 8d 85 c0 fb ff ff 	lea    -0x440(%rbp),%rax
  401238:	48 89 d6             	mov    %rdx,%rsi
  40123b:	48 89 c7             	mov    %rax,%rdi
  40123e:	e8 6d 0b 00 00       	callq  401db0 <_ZNSt6vectorImSaImEE9push_backERKm>
  401243:	48 8d 95 c0 fb ff ff 	lea    -0x440(%rbp),%rdx
  40124a:	48 8d 85 a0 fb ff ff 	lea    -0x460(%rbp),%rax
  401251:	48 89 d6             	mov    %rdx,%rsi
  401254:	48 89 c7             	mov    %rax,%rdi
  401257:	e8 ce 0b 00 00       	callq  401e2a <_ZNSt6vectorIS_ImSaImEESaIS1_EE9push_backERKS1_>
  40125c:	48 8d 85 c0 fb ff ff 	lea    -0x440(%rbp),%rax
  401263:	48 89 c7             	mov    %rax,%rdi
  401266:	e8 df 0a 00 00       	callq  401d4a <_ZNSt6vectorImSaImEED1Ev>
  40126b:	e9 b3 fd ff ff       	jmpq   401023 <main+0xa6>
  401270:	e9 ae fd ff ff       	jmpq   401023 <main+0xa6>
  401275:	48 8b 85 d0 fa ff ff 	mov    -0x530(%rbp),%rax
  40127c:	48 83 c0 10          	add    $0x10,%rax
  401280:	48 8b 00             	mov    (%rax),%rax
  401283:	48 89 c7             	mov    %rax,%rdi
  401286:	e8 35 fb ff ff       	callq  400dc0 <atoi@plt>
  40128b:	89 85 00 fb ff ff    	mov    %eax,-0x500(%rbp)
  401291:	48 8b 85 d0 fa ff ff 	mov    -0x530(%rbp),%rax
  401298:	48 83 c0 18          	add    $0x18,%rax
  40129c:	48 8b 00             	mov    (%rax),%rax
  40129f:	48 89 c7             	mov    %rax,%rdi
  4012a2:	e8 19 fb ff ff       	callq  400dc0 <atoi@plt>
  4012a7:	89 85 04 fb ff ff    	mov    %eax,-0x4fc(%rbp)
  4012ad:	c7 85 f8 fa ff ff 00 	movl   $0x0,-0x508(%rbp)
  4012b4:	00 00 00 
  4012b7:	e9 0a 05 00 00       	jmpq   4017c6 <main+0x849>
  4012bc:	8b 85 f8 fa ff ff    	mov    -0x508(%rbp),%eax
  4012c2:	48 63 d0             	movslq %eax,%rdx
  4012c5:	48 8d 85 a0 fb ff ff 	lea    -0x460(%rbp),%rax
  4012cc:	48 89 d6             	mov    %rdx,%rsi
  4012cf:	48 89 c7             	mov    %rax,%rdi
  4012d2:	e8 05 0c 00 00       	callq  401edc <_ZNSt6vectorIS_ImSaImEESaIS1_EEixEm>
  4012d7:	be 00 00 00 00       	mov    $0x0,%esi
  4012dc:	48 89 c7             	mov    %rax,%rdi
  4012df:	e8 22 0c 00 00       	callq  401f06 <_ZNSt6vectorImSaImEEixEm>
  4012e4:	48 8b 00             	mov    (%rax),%rax
  4012e7:	48 89 85 20 fb ff ff 	mov    %rax,-0x4e0(%rbp)
  4012ee:	8b 85 f8 fa ff ff    	mov    -0x508(%rbp),%eax
  4012f4:	48 63 d0             	movslq %eax,%rdx
  4012f7:	48 8d 85 a0 fb ff ff 	lea    -0x460(%rbp),%rax
  4012fe:	48 89 d6             	mov    %rdx,%rsi
  401301:	48 89 c7             	mov    %rax,%rdi
  401304:	e8 d3 0b 00 00       	callq  401edc <_ZNSt6vectorIS_ImSaImEESaIS1_EEixEm>
  401309:	be 01 00 00 00       	mov    $0x1,%esi
  40130e:	48 89 c7             	mov    %rax,%rdi
  401311:	e8 f0 0b 00 00       	callq  401f06 <_ZNSt6vectorImSaImEEixEm>
  401316:	48 8b 00             	mov    (%rax),%rax
  401319:	48 89 85 28 fb ff ff 	mov    %rax,-0x4d8(%rbp)
  401320:	8b 85 f8 fa ff ff    	mov    -0x508(%rbp),%eax
  401326:	48 63 d0             	movslq %eax,%rdx
  401329:	48 8d 85 a0 fb ff ff 	lea    -0x460(%rbp),%rax
  401330:	48 89 d6             	mov    %rdx,%rsi
  401333:	48 89 c7             	mov    %rax,%rdi
  401336:	e8 a1 0b 00 00       	callq  401edc <_ZNSt6vectorIS_ImSaImEESaIS1_EEixEm>
  40133b:	be 02 00 00 00       	mov    $0x2,%esi
  401340:	48 89 c7             	mov    %rax,%rdi
  401343:	e8 be 0b 00 00       	callq  401f06 <_ZNSt6vectorImSaImEEixEm>
  401348:	48 8b 00             	mov    (%rax),%rax
  40134b:	48 89 85 30 fb ff ff 	mov    %rax,-0x4d0(%rbp)
  401352:	48 c7 85 38 fb ff ff 	movq   $0x0,-0x4c8(%rbp)
  401359:	00 00 00 00 
  40135d:	48 8d 85 c0 fb ff ff 	lea    -0x440(%rbp),%rax
  401364:	be 00 00 00 00       	mov    $0x0,%esi
  401369:	48 89 c7             	mov    %rax,%rdi
  40136c:	e8 9f f9 ff ff       	callq  400d10 <gettimeofday@plt>
  401371:	c7 85 fc fa ff ff 00 	movl   $0x0,-0x504(%rbp)
  401378:	00 00 00 
  40137b:	e9 d2 02 00 00       	jmpq   401652 <main+0x6d5>
  401380:	83 bd 00 fb ff ff 00 	cmpl   $0x0,-0x500(%rbp)
  401387:	75 2c                	jne    4013b5 <main+0x438>
  401389:	48 8b 95 30 fb ff ff 	mov    -0x4d0(%rbp),%rdx
  401390:	48 8b 8d 28 fb ff ff 	mov    -0x4d8(%rbp),%rcx
  401397:	48 8b 85 20 fb ff ff 	mov    -0x4e0(%rbp),%rax
  40139e:	48 89 ce             	mov    %rcx,%rsi
  4013a1:	48 89 c7             	mov    %rax,%rdi
  4013a4:	e8 18 05 00 00       	callq  4018c1 <_Z15straightforwardmmm>
  4013a9:	48 89 85 10 fb ff ff 	mov    %rax,-0x4f0(%rbp)
  4013b0:	e9 96 02 00 00       	jmpq   40164b <main+0x6ce>
  4013b5:	83 bd 00 fb ff ff 01 	cmpl   $0x1,-0x500(%rbp)
  4013bc:	75 2c                	jne    4013ea <main+0x46d>
  4013be:	48 8b 95 30 fb ff ff 	mov    -0x4d0(%rbp),%rdx
  4013c5:	48 8b 8d 28 fb ff ff 	mov    -0x4d8(%rbp),%rcx
  4013cc:	48 8b 85 20 fb ff ff 	mov    -0x4e0(%rbp),%rax
  4013d3:	48 89 ce             	mov    %rcx,%rsi
  4013d6:	48 89 c7             	mov    %rax,%rdi
  4013d9:	e8 30 05 00 00       	callq  40190e <_Z15square_multiplymmm>
  4013de:	48 89 85 10 fb ff ff 	mov    %rax,-0x4f0(%rbp)
  4013e5:	e9 61 02 00 00       	jmpq   40164b <main+0x6ce>
  4013ea:	83 bd 00 fb ff ff 02 	cmpl   $0x2,-0x500(%rbp)
  4013f1:	0f 85 12 01 00 00    	jne    401509 <main+0x58c>
  4013f7:	48 b8 00 00 00 00 01 	movabs $0x100000000,%rax
  4013fe:	00 00 00 
  401401:	48 89 85 40 fb ff ff 	mov    %rax,-0x4c0(%rbp)
  401408:	48 8b 85 40 fb ff ff 	mov    -0x4c0(%rbp),%rax
  40140f:	ba 00 00 00 00       	mov    $0x0,%edx
  401414:	48 f7 b5 30 fb ff ff 	divq   -0x4d0(%rbp)
  40141b:	48 89 d0             	mov    %rdx,%rax
  40141e:	48 8b 95 30 fb ff ff 	mov    -0x4d0(%rbp),%rdx
  401425:	48 89 d6             	mov    %rdx,%rsi
  401428:	48 89 c7             	mov    %rax,%rdi
  40142b:	e8 7e 07 00 00       	callq  401bae <_Z15extended_euclidmm>
  401430:	48 89 85 48 fb ff ff 	mov    %rax,-0x4b8(%rbp)
  401437:	48 83 bd 48 fb ff ff 	cmpq   $0x0,-0x4b8(%rbp)
  40143e:	00 
  40143f:	75 0a                	jne    40144b <main+0x4ce>
  401441:	bb 01 00 00 00       	mov    $0x1,%ebx
  401446:	e9 a0 03 00 00       	jmpq   4017eb <main+0x86e>
  40144b:	48 8b 85 40 fb ff ff 	mov    -0x4c0(%rbp),%rax
  401452:	48 0f af 85 48 fb ff 	imul   -0x4b8(%rbp),%rax
  401459:	ff 
  40145a:	48 83 e8 01          	sub    $0x1,%rax
  40145e:	ba 00 00 00 00       	mov    $0x0,%edx
  401463:	48 f7 b5 30 fb ff ff 	divq   -0x4d0(%rbp)
  40146a:	48 89 85 50 fb ff ff 	mov    %rax,-0x4b0(%rbp)
  401471:	48 8b 85 40 fb ff ff 	mov    -0x4c0(%rbp),%rax
  401478:	ba 00 00 00 00       	mov    $0x0,%edx
  40147d:	48 f7 b5 30 fb ff ff 	divq   -0x4d0(%rbp)
  401484:	48 89 95 58 fb ff ff 	mov    %rdx,-0x4a8(%rbp)
  40148b:	48 8b 85 20 fb ff ff 	mov    -0x4e0(%rbp),%rax
  401492:	48 0f af 85 40 fb ff 	imul   -0x4c0(%rbp),%rax
  401499:	ff 
  40149a:	ba 00 00 00 00       	mov    $0x0,%edx
  40149f:	48 f7 b5 30 fb ff ff 	divq   -0x4d0(%rbp)
  4014a6:	48 89 95 60 fb ff ff 	mov    %rdx,-0x4a0(%rbp)
  4014ad:	48 8b bd 58 fb ff ff 	mov    -0x4a8(%rbp),%rdi
  4014b4:	48 8b 8d 50 fb ff ff 	mov    -0x4b0(%rbp),%rcx
  4014bb:	48 8b 95 30 fb ff ff 	mov    -0x4d0(%rbp),%rdx
  4014c2:	48 8b b5 28 fb ff ff 	mov    -0x4d8(%rbp),%rsi
  4014c9:	48 8b 85 60 fb ff ff 	mov    -0x4a0(%rbp),%rax
  4014d0:	49 89 f8             	mov    %rdi,%r8
  4014d3:	48 89 c7             	mov    %rax,%rdi
  4014d6:	e8 ae 04 00 00       	callq  401989 <_Z26montgomery_square_multiplymmmmm>
  4014db:	48 89 85 68 fb ff ff 	mov    %rax,-0x498(%rbp)
  4014e2:	48 8b 85 68 fb ff ff 	mov    -0x498(%rbp),%rax
  4014e9:	48 0f af 85 48 fb ff 	imul   -0x4b8(%rbp),%rax
  4014f0:	ff 
  4014f1:	ba 00 00 00 00       	mov    $0x0,%edx
  4014f6:	48 f7 b5 30 fb ff ff 	divq   -0x4d0(%rbp)
  4014fd:	48 89 95 10 fb ff ff 	mov    %rdx,-0x4f0(%rbp)
  401504:	e9 42 01 00 00       	jmpq   40164b <main+0x6ce>
  401509:	83 bd 00 fb ff ff 03 	cmpl   $0x3,-0x500(%rbp)
  401510:	0f 85 0f 01 00 00    	jne    401625 <main+0x6a8>
  401516:	48 b8 00 00 00 00 01 	movabs $0x100000000,%rax
  40151d:	00 00 00 
  401520:	48 89 85 70 fb ff ff 	mov    %rax,-0x490(%rbp)
  401527:	48 8b 85 70 fb ff ff 	mov    -0x490(%rbp),%rax
  40152e:	ba 00 00 00 00       	mov    $0x0,%edx
  401533:	48 f7 b5 30 fb ff ff 	divq   -0x4d0(%rbp)
  40153a:	48 89 d0             	mov    %rdx,%rax
  40153d:	48 8b 95 30 fb ff ff 	mov    -0x4d0(%rbp),%rdx
  401544:	48 89 d6             	mov    %rdx,%rsi
  401547:	48 89 c7             	mov    %rax,%rdi
  40154a:	e8 5f 06 00 00       	callq  401bae <_Z15extended_euclidmm>
  40154f:	48 89 85 78 fb ff ff 	mov    %rax,-0x488(%rbp)
  401556:	48 83 bd 78 fb ff ff 	cmpq   $0x0,-0x488(%rbp)
  40155d:	00 
  40155e:	75 0a                	jne    40156a <main+0x5ed>
  401560:	bb 01 00 00 00       	mov    $0x1,%ebx
  401565:	e9 81 02 00 00       	jmpq   4017eb <main+0x86e>
  40156a:	48 8b 85 70 fb ff ff 	mov    -0x490(%rbp),%rax
  401571:	48 0f af 85 78 fb ff 	imul   -0x488(%rbp),%rax
  401578:	ff 
  401579:	48 83 e8 01          	sub    $0x1,%rax
  40157d:	ba 00 00 00 00       	mov    $0x0,%edx
  401582:	48 f7 b5 30 fb ff ff 	divq   -0x4d0(%rbp)
  401589:	48 89 85 80 fb ff ff 	mov    %rax,-0x480(%rbp)
  401590:	48 8b 85 70 fb ff ff 	mov    -0x490(%rbp),%rax
  401597:	ba 00 00 00 00       	mov    $0x0,%edx
  40159c:	48 f7 b5 30 fb ff ff 	divq   -0x4d0(%rbp)
  4015a3:	48 89 95 88 fb ff ff 	mov    %rdx,-0x478(%rbp)
  4015aa:	48 8b 85 20 fb ff ff 	mov    -0x4e0(%rbp),%rax
  4015b1:	48 0f af 85 70 fb ff 	imul   -0x490(%rbp),%rax
  4015b8:	ff 
  4015b9:	ba 00 00 00 00       	mov    $0x0,%edx
  4015be:	48 f7 b5 30 fb ff ff 	divq   -0x4d0(%rbp)
  4015c5:	48 89 95 90 fb ff ff 	mov    %rdx,-0x470(%rbp)
  4015cc:	48 8b bd 88 fb ff ff 	mov    -0x478(%rbp),%rdi
  4015d3:	48 8b 8d 80 fb ff ff 	mov    -0x480(%rbp),%rcx
  4015da:	48 8b 95 30 fb ff ff 	mov    -0x4d0(%rbp),%rdx
  4015e1:	48 8b b5 28 fb ff ff 	mov    -0x4d8(%rbp),%rsi
  4015e8:	48 8b 85 90 fb ff ff 	mov    -0x470(%rbp),%rax
  4015ef:	49 89 f8             	mov    %rdi,%r8
  4015f2:	48 89 c7             	mov    %rax,%rdi
  4015f5:	e8 2a 04 00 00       	callq  401a24 <_Z17montgomery_laddermmmmm>
  4015fa:	48 89 85 98 fb ff ff 	mov    %rax,-0x468(%rbp)
  401601:	48 8b 85 98 fb ff ff 	mov    -0x468(%rbp),%rax
  401608:	48 0f af 85 78 fb ff 	imul   -0x488(%rbp),%rax
  40160f:	ff 
  401610:	ba 00 00 00 00       	mov    $0x0,%edx
  401615:	48 f7 b5 30 fb ff ff 	divq   -0x4d0(%rbp)
  40161c:	48 89 95 10 fb ff ff 	mov    %rdx,-0x4f0(%rbp)
  401623:	eb 26                	jmp    40164b <main+0x6ce>
  401625:	be 80 40 40 00       	mov    $0x404080,%esi
  40162a:	bf 20 61 60 00       	mov    $0x606120,%edi
  40162f:	e8 5c f7 ff ff       	callq  400d90 <_ZStlsISt11char_traitsIcEERSt13basic_ostreamIcT_ES5_PKc@plt>
  401634:	be 40 0e 40 00       	mov    $0x400e40,%esi
  401639:	48 89 c7             	mov    %rax,%rdi
  40163c:	e8 bf f7 ff ff       	callq  400e00 <_ZNSolsEPFRSoS_E@plt>
  401641:	bb 01 00 00 00       	mov    $0x1,%ebx
  401646:	e9 a0 01 00 00       	jmpq   4017eb <main+0x86e>
  40164b:	83 85 fc fa ff ff 01 	addl   $0x1,-0x504(%rbp)
  401652:	8b 85 fc fa ff ff    	mov    -0x504(%rbp),%eax
  401658:	3b 85 04 fb ff ff    	cmp    -0x4fc(%rbp),%eax
  40165e:	0f 8c 1c fd ff ff    	jl     401380 <main+0x403>
  401664:	48 8d 85 e0 fb ff ff 	lea    -0x420(%rbp),%rax
  40166b:	be 00 00 00 00       	mov    $0x0,%esi
  401670:	48 89 c7             	mov    %rax,%rdi
  401673:	e8 98 f6 ff ff       	callq  400d10 <gettimeofday@plt>
  401678:	48 8b 85 e0 fb ff ff 	mov    -0x420(%rbp),%rax
  40167f:	48 69 d0 40 42 0f 00 	imul   $0xf4240,%rax,%rdx
  401686:	48 8b 85 e8 fb ff ff 	mov    -0x418(%rbp),%rax
  40168d:	48 8d 0c 02          	lea    (%rdx,%rax,1),%rcx
  401691:	48 8b 85 c0 fb ff ff 	mov    -0x440(%rbp),%rax
  401698:	48 69 d0 c0 bd f0 ff 	imul   $0xfffffffffff0bdc0,%rax,%rdx
  40169f:	48 8b 85 c8 fb ff ff 	mov    -0x438(%rbp),%rax
  4016a6:	48 29 c2             	sub    %rax,%rdx
  4016a9:	48 89 d0             	mov    %rdx,%rax
  4016ac:	48 01 c8             	add    %rcx,%rax
  4016af:	48 01 85 38 fb ff ff 	add    %rax,-0x4c8(%rbp)
  4016b6:	8b 85 04 fb ff ff    	mov    -0x4fc(%rbp),%eax
  4016bc:	48 63 c8             	movslq %eax,%rcx
  4016bf:	48 8b 85 38 fb ff ff 	mov    -0x4c8(%rbp),%rax
  4016c6:	48 99                	cqto   
  4016c8:	48 f7 f9             	idiv   %rcx
  4016cb:	48 89 c3             	mov    %rax,%rbx
  4016ce:	8b 85 f8 fa ff ff    	mov    -0x508(%rbp),%eax
  4016d4:	44 8d 60 01          	lea    0x1(%rax),%r12d
  4016d8:	be b3 40 40 00       	mov    $0x4040b3,%esi
  4016dd:	bf 20 61 60 00       	mov    $0x606120,%edi
  4016e2:	e8 a9 f6 ff ff       	callq  400d90 <_ZStlsISt11char_traitsIcEERSt13basic_ostreamIcT_ES5_PKc@plt>
  4016e7:	44 89 e6             	mov    %r12d,%esi
  4016ea:	48 89 c7             	mov    %rax,%rdi
  4016ed:	e8 de f5 ff ff       	callq  400cd0 <_ZNSolsEi@plt>
  4016f2:	be c0 40 40 00       	mov    $0x4040c0,%esi
  4016f7:	48 89 c7             	mov    %rax,%rdi
  4016fa:	e8 91 f6 ff ff       	callq  400d90 <_ZStlsISt11char_traitsIcEERSt13basic_ostreamIcT_ES5_PKc@plt>
  4016ff:	48 8b 95 20 fb ff ff 	mov    -0x4e0(%rbp),%rdx
  401706:	48 89 d6             	mov    %rdx,%rsi
  401709:	48 89 c7             	mov    %rax,%rdi
  40170c:	e8 8f f6 ff ff       	callq  400da0 <_ZNSolsEm@plt>
  401711:	be c3 40 40 00       	mov    $0x4040c3,%esi
  401716:	48 89 c7             	mov    %rax,%rdi
  401719:	e8 72 f6 ff ff       	callq  400d90 <_ZStlsISt11char_traitsIcEERSt13basic_ostreamIcT_ES5_PKc@plt>
  40171e:	48 8b 95 28 fb ff ff 	mov    -0x4d8(%rbp),%rdx
  401725:	48 89 d6             	mov    %rdx,%rsi
  401728:	48 89 c7             	mov    %rax,%rdi
  40172b:	e8 70 f6 ff ff       	callq  400da0 <_ZNSolsEm@plt>
  401730:	be c5 40 40 00       	mov    $0x4040c5,%esi
  401735:	48 89 c7             	mov    %rax,%rdi
  401738:	e8 53 f6 ff ff       	callq  400d90 <_ZStlsISt11char_traitsIcEERSt13basic_ostreamIcT_ES5_PKc@plt>
  40173d:	48 8b 95 30 fb ff ff 	mov    -0x4d0(%rbp),%rdx
  401744:	48 89 d6             	mov    %rdx,%rsi
  401747:	48 89 c7             	mov    %rax,%rdi
  40174a:	e8 51 f6 ff ff       	callq  400da0 <_ZNSolsEm@plt>
  40174f:	be c7 40 40 00       	mov    $0x4040c7,%esi
  401754:	48 89 c7             	mov    %rax,%rdi
  401757:	e8 34 f6 ff ff       	callq  400d90 <_ZStlsISt11char_traitsIcEERSt13basic_ostreamIcT_ES5_PKc@plt>
  40175c:	48 8b 95 10 fb ff ff 	mov    -0x4f0(%rbp),%rdx
  401763:	48 89 d6             	mov    %rdx,%rsi
  401766:	48 89 c7             	mov    %rax,%rdi
  401769:	e8 32 f6 ff ff       	callq  400da0 <_ZNSolsEm@plt>
  40176e:	be c9 40 40 00       	mov    $0x4040c9,%esi
  401773:	48 89 c7             	mov    %rax,%rdi
  401776:	e8 15 f6 ff ff       	callq  400d90 <_ZStlsISt11char_traitsIcEERSt13basic_ostreamIcT_ES5_PKc@plt>
  40177b:	48 8b 95 38 fb ff ff 	mov    -0x4c8(%rbp),%rdx
  401782:	48 89 d6             	mov    %rdx,%rsi
  401785:	48 89 c7             	mov    %rax,%rdi
  401788:	e8 33 f5 ff ff       	callq  400cc0 <_ZNSolsEl@plt>
  40178d:	be e1 40 40 00       	mov    $0x4040e1,%esi
  401792:	48 89 c7             	mov    %rax,%rdi
  401795:	e8 f6 f5 ff ff       	callq  400d90 <_ZStlsISt11char_traitsIcEERSt13basic_ostreamIcT_ES5_PKc@plt>
  40179a:	48 89 de             	mov    %rbx,%rsi
  40179d:	48 89 c7             	mov    %rax,%rdi
  4017a0:	e8 1b f5 ff ff       	callq  400cc0 <_ZNSolsEl@plt>
  4017a5:	be f1 40 40 00       	mov    $0x4040f1,%esi
  4017aa:	48 89 c7             	mov    %rax,%rdi
  4017ad:	e8 de f5 ff ff       	callq  400d90 <_ZStlsISt11char_traitsIcEERSt13basic_ostreamIcT_ES5_PKc@plt>
  4017b2:	be 40 0e 40 00       	mov    $0x400e40,%esi
  4017b7:	48 89 c7             	mov    %rax,%rdi
  4017ba:	e8 41 f6 ff ff       	callq  400e00 <_ZNSolsEPFRSoS_E@plt>
  4017bf:	83 85 f8 fa ff ff 01 	addl   $0x1,-0x508(%rbp)
  4017c6:	48 8d 85 a0 fb ff ff 	lea    -0x460(%rbp),%rax
  4017cd:	48 89 c7             	mov    %rax,%rdi
  4017d0:	e8 cf 06 00 00       	callq  401ea4 <_ZNKSt6vectorIS_ImSaImEESaIS1_EE4sizeEv>
  4017d5:	3b 85 f8 fa ff ff    	cmp    -0x508(%rbp),%eax
  4017db:	0f 9f c0             	setg   %al
  4017de:	84 c0                	test   %al,%al
  4017e0:	0f 85 d6 fa ff ff    	jne    4012bc <main+0x33f>
  4017e6:	bb 00 00 00 00       	mov    $0x0,%ebx
  4017eb:	48 8d 85 a0 fb ff ff 	lea    -0x460(%rbp),%rax
  4017f2:	48 89 c7             	mov    %rax,%rdi
  4017f5:	e8 d0 04 00 00       	callq  401cca <_ZNSt6vectorIS_ImSaImEESaIS1_EED1Ev>
  4017fa:	89 d8                	mov    %ebx,%eax
  4017fc:	48 8b 5d e8          	mov    -0x18(%rbp),%rbx
  401800:	64 48 33 1c 25 28 00 	xor    %fs:0x28,%rbx
  401807:	00 00 
  401809:	74 38                	je     401843 <main+0x8c6>
  40180b:	eb 31                	jmp    40183e <main+0x8c1>
  40180d:	48 89 c3             	mov    %rax,%rbx
  401810:	48 8d 85 c0 fb ff ff 	lea    -0x440(%rbp),%rax
  401817:	48 89 c7             	mov    %rax,%rdi
  40181a:	e8 2b 05 00 00       	callq  401d4a <_ZNSt6vectorImSaImEED1Ev>
  40181f:	eb 03                	jmp    401824 <main+0x8a7>
  401821:	48 89 c3             	mov    %rax,%rbx
  401824:	48 8d 85 a0 fb ff ff 	lea    -0x460(%rbp),%rax
  40182b:	48 89 c7             	mov    %rax,%rdi
  40182e:	e8 97 04 00 00       	callq  401cca <_ZNSt6vectorIS_ImSaImEESaIS1_EED1Ev>
  401833:	48 89 d8             	mov    %rbx,%rax
  401836:	48 89 c7             	mov    %rax,%rdi
  401839:	e8 42 f6 ff ff       	callq  400e80 <_Unwind_Resume@plt>
  40183e:	e8 9d f5 ff ff       	callq  400de0 <__stack_chk_fail@plt>
  401843:	48 81 c4 20 05 00 00 	add    $0x520,%rsp
  40184a:	5b                   	pop    %rbx
  40184b:	41 5c                	pop    %r12
  40184d:	5d                   	pop    %rbp
  40184e:	c3                   	retq   

000000000040184f <_Z41__static_initialization_and_destruction_0ii>:
  40184f:	55                   	push   %rbp
  401850:	48 89 e5             	mov    %rsp,%rbp
  401853:	48 83 ec 10          	sub    $0x10,%rsp
  401857:	89 7d fc             	mov    %edi,-0x4(%rbp)
  40185a:	89 75 f8             	mov    %esi,-0x8(%rbp)
  40185d:	83 7d fc 01          	cmpl   $0x1,-0x4(%rbp)
  401861:	75 27                	jne    40188a <_Z41__static_initialization_and_destruction_0ii+0x3b>
  401863:	81 7d f8 ff ff 00 00 	cmpl   $0xffff,-0x8(%rbp)
  40186a:	75 1e                	jne    40188a <_Z41__static_initialization_and_destruction_0ii+0x3b>
  40186c:	bf 31 62 60 00       	mov    $0x606231,%edi
  401871:	e8 ba f4 ff ff       	callq  400d30 <_ZNSt8ios_base4InitC1Ev@plt>
  401876:	ba 10 61 60 00       	mov    $0x606110,%edx
  40187b:	be 31 62 60 00       	mov    $0x606231,%esi
  401880:	bf 80 0d 40 00       	mov    $0x400d80,%edi
  401885:	e8 d6 f4 ff ff       	callq  400d60 <__cxa_atexit@plt>
  40188a:	c9                   	leaveq 
  40188b:	c3                   	retq   

000000000040188c <_GLOBAL__sub_I_main>:
  40188c:	55                   	push   %rbp
  40188d:	48 89 e5             	mov    %rsp,%rbp
  401890:	be ff ff 00 00       	mov    $0xffff,%esi
  401895:	bf 01 00 00 00       	mov    $0x1,%edi
  40189a:	e8 b0 ff ff ff       	callq  40184f <_Z41__static_initialization_and_destruction_0ii>
  40189f:	5d                   	pop    %rbp
  4018a0:	c3                   	retq   

00000000004018a1 <_ZnwmPv>:
  4018a1:	55                   	push   %rbp
  4018a2:	48 89 e5             	mov    %rsp,%rbp
  4018a5:	48 89 7d f8          	mov    %rdi,-0x8(%rbp)
  4018a9:	48 89 75 f0          	mov    %rsi,-0x10(%rbp)
  4018ad:	48 8b 45 f0          	mov    -0x10(%rbp),%rax
  4018b1:	5d                   	pop    %rbp
  4018b2:	c3                   	retq   

00000000004018b3 <_ZdlPvS_>:
  4018b3:	55                   	push   %rbp
  4018b4:	48 89 e5             	mov    %rsp,%rbp
  4018b7:	48 89 7d f8          	mov    %rdi,-0x8(%rbp)
  4018bb:	48 89 75 f0          	mov    %rsi,-0x10(%rbp)
  4018bf:	5d                   	pop    %rbp
  4018c0:	c3                   	retq   

00000000004018c1 <_Z15straightforwardmmm>:
  4018c1:	55                   	push   %rbp
  4018c2:	48 89 e5             	mov    %rsp,%rbp
  4018c5:	48 89 7d e8          	mov    %rdi,-0x18(%rbp)
  4018c9:	48 89 75 e0          	mov    %rsi,-0x20(%rbp)
  4018cd:	48 89 55 d8          	mov    %rdx,-0x28(%rbp)
  4018d1:	48 c7 45 f0 01 00 00 	movq   $0x1,-0x10(%rbp)
  4018d8:	00 
  4018d9:	48 c7 45 f8 00 00 00 	movq   $0x0,-0x8(%rbp)
  4018e0:	00 
  4018e1:	eb 1b                	jmp    4018fe <_Z15straightforwardmmm+0x3d>
  4018e3:	48 8b 45 f0          	mov    -0x10(%rbp),%rax
  4018e7:	48 0f af 45 e8       	imul   -0x18(%rbp),%rax
  4018ec:	ba 00 00 00 00       	mov    $0x0,%edx
  4018f1:	48 f7 75 d8          	divq   -0x28(%rbp)
  4018f5:	48 89 55 f0          	mov    %rdx,-0x10(%rbp)
  4018f9:	48 83 45 f8 01       	addq   $0x1,-0x8(%rbp)
  4018fe:	48 8b 45 f8          	mov    -0x8(%rbp),%rax
  401902:	48 3b 45 e0          	cmp    -0x20(%rbp),%rax
  401906:	72 db                	jb     4018e3 <_Z15straightforwardmmm+0x22>
  401908:	48 8b 45 f0          	mov    -0x10(%rbp),%rax
  40190c:	5d                   	pop    %rbp
  40190d:	c3                   	retq   

000000000040190e <_Z15square_multiplymmm>:
  40190e:	55                   	push   %rbp
  40190f:	48 89 e5             	mov    %rsp,%rbp
  401912:	48 89 7d e8          	mov    %rdi,-0x18(%rbp)
  401916:	48 89 75 e0          	mov    %rsi,-0x20(%rbp)
  40191a:	48 89 55 d8          	mov    %rdx,-0x28(%rbp)
  40191e:	48 c7 45 f8 01 00 00 	movq   $0x1,-0x8(%rbp)
  401925:	00 
  401926:	c7 45 f4 20 00 00 00 	movl   $0x20,-0xc(%rbp)
  40192d:	c7 45 f0 1f 00 00 00 	movl   $0x1f,-0x10(%rbp)
  401934:	eb 47                	jmp    40197d <_Z15square_multiplymmm+0x6f>
  401936:	48 8b 45 f8          	mov    -0x8(%rbp),%rax
  40193a:	48 0f af 45 f8       	imul   -0x8(%rbp),%rax
  40193f:	ba 00 00 00 00       	mov    $0x0,%edx
  401944:	48 f7 75 d8          	divq   -0x28(%rbp)
  401948:	48 89 55 f8          	mov    %rdx,-0x8(%rbp)
  40194c:	8b 45 f0             	mov    -0x10(%rbp),%eax
  40194f:	48 8b 55 e0          	mov    -0x20(%rbp),%rdx
  401953:	89 c1                	mov    %eax,%ecx
  401955:	48 d3 ea             	shr    %cl,%rdx
  401958:	48 89 d0             	mov    %rdx,%rax
  40195b:	83 e0 01             	and    $0x1,%eax
  40195e:	48 85 c0             	test   %rax,%rax
  401961:	74 16                	je     401979 <_Z15square_multiplymmm+0x6b>
  401963:	48 8b 45 f8          	mov    -0x8(%rbp),%rax
  401967:	48 0f af 45 e8       	imul   -0x18(%rbp),%rax
  40196c:	ba 00 00 00 00       	mov    $0x0,%edx
  401971:	48 f7 75 d8          	divq   -0x28(%rbp)
  401975:	48 89 55 f8          	mov    %rdx,-0x8(%rbp)
  401979:	83 6d f0 01          	subl   $0x1,-0x10(%rbp)
  40197d:	83 7d f0 00          	cmpl   $0x0,-0x10(%rbp)
  401981:	79 b3                	jns    401936 <_Z15square_multiplymmm+0x28>
  401983:	48 8b 45 f8          	mov    -0x8(%rbp),%rax
  401987:	5d                   	pop    %rbp
  401988:	c3                   	retq   

0000000000401989 <_Z26montgomery_square_multiplymmmmm>:
  401989:	55                   	push   %rbp
  40198a:	48 89 e5             	mov    %rsp,%rbp
  40198d:	48 83 ec 40          	sub    $0x40,%rsp
  401991:	48 89 7d e8          	mov    %rdi,-0x18(%rbp)
  401995:	48 89 75 e0          	mov    %rsi,-0x20(%rbp)
  401999:	48 89 55 d8          	mov    %rdx,-0x28(%rbp)
  40199d:	48 89 4d d0          	mov    %rcx,-0x30(%rbp)
  4019a1:	4c 89 45 c8          	mov    %r8,-0x38(%rbp)
  4019a5:	48 8b 45 c8          	mov    -0x38(%rbp),%rax
  4019a9:	48 89 45 f8          	mov    %rax,-0x8(%rbp)
  4019ad:	c7 45 f4 20 00 00 00 	movl   $0x20,-0xc(%rbp)
  4019b4:	c7 45 f0 1f 00 00 00 	movl   $0x1f,-0x10(%rbp)
  4019bb:	eb 5b                	jmp    401a18 <_Z26montgomery_square_multiplymmmmm+0x8f>
  4019bd:	48 8b 45 f8          	mov    -0x8(%rbp),%rax
  4019c1:	48 0f af 45 f8       	imul   -0x8(%rbp),%rax
  4019c6:	48 8b 55 d0          	mov    -0x30(%rbp),%rdx
  4019ca:	48 8b 4d d8          	mov    -0x28(%rbp),%rcx
  4019ce:	48 89 ce             	mov    %rcx,%rsi
  4019d1:	48 89 c7             	mov    %rax,%rdi
  4019d4:	e8 37 01 00 00       	callq  401b10 <_Z20montgomery_reductionmmm>
  4019d9:	48 89 45 f8          	mov    %rax,-0x8(%rbp)
  4019dd:	8b 45 f0             	mov    -0x10(%rbp),%eax
  4019e0:	48 8b 55 e0          	mov    -0x20(%rbp),%rdx
  4019e4:	89 c1                	mov    %eax,%ecx
  4019e6:	48 d3 ea             	shr    %cl,%rdx
  4019e9:	48 89 d0             	mov    %rdx,%rax
  4019ec:	83 e0 01             	and    $0x1,%eax
  4019ef:	48 85 c0             	test   %rax,%rax
  4019f2:	74 20                	je     401a14 <_Z26montgomery_square_multiplymmmmm+0x8b>
  4019f4:	48 8b 45 f8          	mov    -0x8(%rbp),%rax
  4019f8:	48 0f af 45 e8       	imul   -0x18(%rbp),%rax
  4019fd:	48 8b 55 d0          	mov    -0x30(%rbp),%rdx
  401a01:	48 8b 4d d8          	mov    -0x28(%rbp),%rcx
  401a05:	48 89 ce             	mov    %rcx,%rsi
  401a08:	48 89 c7             	mov    %rax,%rdi
  401a0b:	e8 00 01 00 00       	callq  401b10 <_Z20montgomery_reductionmmm>
  401a10:	48 89 45 f8          	mov    %rax,-0x8(%rbp)
  401a14:	83 6d f0 01          	subl   $0x1,-0x10(%rbp)
  401a18:	83 7d f0 00          	cmpl   $0x0,-0x10(%rbp)
  401a1c:	79 9f                	jns    4019bd <_Z26montgomery_square_multiplymmmmm+0x34>
  401a1e:	48 8b 45 f8          	mov    -0x8(%rbp),%rax
  401a22:	c9                   	leaveq 
  401a23:	c3                   	retq   

0000000000401a24 <_Z17montgomery_laddermmmmm>:
  401a24:	55                   	push   %rbp
  401a25:	48 89 e5             	mov    %rsp,%rbp
  401a28:	48 83 ec 50          	sub    $0x50,%rsp
  401a2c:	48 89 7d d8          	mov    %rdi,-0x28(%rbp)
  401a30:	48 89 75 d0          	mov    %rsi,-0x30(%rbp)
  401a34:	48 89 55 c8          	mov    %rdx,-0x38(%rbp)
  401a38:	48 89 4d c0          	mov    %rcx,-0x40(%rbp)
  401a3c:	4c 89 45 b8          	mov    %r8,-0x48(%rbp)
  401a40:	48 8b 45 b8          	mov    -0x48(%rbp),%rax
  401a44:	48 89 45 f0          	mov    %rax,-0x10(%rbp)
  401a48:	48 8b 45 d8          	mov    -0x28(%rbp),%rax
  401a4c:	48 89 45 f8          	mov    %rax,-0x8(%rbp)
  401a50:	c7 45 ec 20 00 00 00 	movl   $0x20,-0x14(%rbp)
  401a57:	c7 45 e8 1f 00 00 00 	movl   $0x1f,-0x18(%rbp)
  401a5e:	e9 9d 00 00 00       	jmpq   401b00 <_Z17montgomery_laddermmmmm+0xdc>
  401a63:	8b 45 e8             	mov    -0x18(%rbp),%eax
  401a66:	48 8b 55 d0          	mov    -0x30(%rbp),%rdx
  401a6a:	89 c1                	mov    %eax,%ecx
  401a6c:	48 d3 ea             	shr    %cl,%rdx
  401a6f:	48 89 d0             	mov    %rdx,%rax
  401a72:	83 e0 01             	and    $0x1,%eax
  401a75:	48 85 c0             	test   %rax,%rax
  401a78:	75 42                	jne    401abc <_Z17montgomery_laddermmmmm+0x98>
  401a7a:	48 8b 45 f0          	mov    -0x10(%rbp),%rax
  401a7e:	48 0f af 45 f8       	imul   -0x8(%rbp),%rax
  401a83:	48 8b 55 c0          	mov    -0x40(%rbp),%rdx
  401a87:	48 8b 4d c8          	mov    -0x38(%rbp),%rcx
  401a8b:	48 89 ce             	mov    %rcx,%rsi
  401a8e:	48 89 c7             	mov    %rax,%rdi
  401a91:	e8 7a 00 00 00       	callq  401b10 <_Z20montgomery_reductionmmm>
  401a96:	48 89 45 f8          	mov    %rax,-0x8(%rbp)
  401a9a:	48 8b 45 f0          	mov    -0x10(%rbp),%rax
  401a9e:	48 0f af 45 f0       	imul   -0x10(%rbp),%rax
  401aa3:	48 8b 55 c0          	mov    -0x40(%rbp),%rdx
  401aa7:	48 8b 4d c8          	mov    -0x38(%rbp),%rcx
  401aab:	48 89 ce             	mov    %rcx,%rsi
  401aae:	48 89 c7             	mov    %rax,%rdi
  401ab1:	e8 5a 00 00 00       	callq  401b10 <_Z20montgomery_reductionmmm>
  401ab6:	48 89 45 f0          	mov    %rax,-0x10(%rbp)
  401aba:	eb 40                	jmp    401afc <_Z17montgomery_laddermmmmm+0xd8>
  401abc:	48 8b 45 f0          	mov    -0x10(%rbp),%rax
  401ac0:	48 0f af 45 f8       	imul   -0x8(%rbp),%rax
  401ac5:	48 8b 55 c0          	mov    -0x40(%rbp),%rdx
  401ac9:	48 8b 4d c8          	mov    -0x38(%rbp),%rcx
  401acd:	48 89 ce             	mov    %rcx,%rsi
  401ad0:	48 89 c7             	mov    %rax,%rdi
  401ad3:	e8 38 00 00 00       	callq  401b10 <_Z20montgomery_reductionmmm>
  401ad8:	48 89 45 f0          	mov    %rax,-0x10(%rbp)
  401adc:	48 8b 45 f8          	mov    -0x8(%rbp),%rax
  401ae0:	48 0f af 45 f8       	imul   -0x8(%rbp),%rax
  401ae5:	48 8b 55 c0          	mov    -0x40(%rbp),%rdx
  401ae9:	48 8b 4d c8          	mov    -0x38(%rbp),%rcx
  401aed:	48 89 ce             	mov    %rcx,%rsi
  401af0:	48 89 c7             	mov    %rax,%rdi
  401af3:	e8 18 00 00 00       	callq  401b10 <_Z20montgomery_reductionmmm>
  401af8:	48 89 45 f8          	mov    %rax,-0x8(%rbp)
  401afc:	83 6d e8 01          	subl   $0x1,-0x18(%rbp)
  401b00:	83 7d e8 00          	cmpl   $0x0,-0x18(%rbp)
  401b04:	0f 89 59 ff ff ff    	jns    401a63 <_Z17montgomery_laddermmmmm+0x3f>
  401b0a:	48 8b 45 f0          	mov    -0x10(%rbp),%rax
  401b0e:	c9                   	leaveq 
  401b0f:	c3                   	retq   

0000000000401b10 <_Z20montgomery_reductionmmm>:
  401b10:	55                   	push   %rbp
  401b11:	48 89 e5             	mov    %rsp,%rbp
  401b14:	48 89 7d b8          	mov    %rdi,-0x48(%rbp)
  401b18:	48 89 75 b0          	mov    %rsi,-0x50(%rbp)
  401b1c:	48 89 55 a8          	mov    %rdx,-0x58(%rbp)
  401b20:	48 8b 45 b8          	mov    -0x48(%rbp),%rax
  401b24:	89 c0                	mov    %eax,%eax
  401b26:	48 89 45 c8          	mov    %rax,-0x38(%rbp)
  401b2a:	48 8b 45 b8          	mov    -0x48(%rbp),%rax
  401b2e:	48 c1 e8 20          	shr    $0x20,%rax
  401b32:	48 89 45 d0          	mov    %rax,-0x30(%rbp)
  401b36:	48 8b 45 c8          	mov    -0x38(%rbp),%rax
  401b3a:	48 0f af 45 a8       	imul   -0x58(%rbp),%rax
  401b3f:	83 e0 ff             	and    $0xffffffff,%eax
  401b42:	48 89 45 d8          	mov    %rax,-0x28(%rbp)
  401b46:	48 8b 45 d8          	mov    -0x28(%rbp),%rax
  401b4a:	48 0f af 45 b0       	imul   -0x50(%rbp),%rax
  401b4f:	48 89 45 e0          	mov    %rax,-0x20(%rbp)
  401b53:	48 8b 45 e0          	mov    -0x20(%rbp),%rax
  401b57:	89 c0                	mov    %eax,%eax
  401b59:	48 89 45 e8          	mov    %rax,-0x18(%rbp)
  401b5d:	48 8b 45 e0          	mov    -0x20(%rbp),%rax
  401b61:	48 c1 e8 20          	shr    $0x20,%rax
  401b65:	48 89 45 f0          	mov    %rax,-0x10(%rbp)
  401b69:	48 8b 45 f0          	mov    -0x10(%rbp),%rax
  401b6d:	48 8b 55 d0          	mov    -0x30(%rbp),%rdx
  401b71:	48 8d 0c 02          	lea    (%rdx,%rax,1),%rcx
  401b75:	48 8b 45 e8          	mov    -0x18(%rbp),%rax
  401b79:	48 8b 55 c8          	mov    -0x38(%rbp),%rdx
  401b7d:	48 01 d0             	add    %rdx,%rax
  401b80:	48 c1 e8 20          	shr    $0x20,%rax
  401b84:	83 e0 01             	and    $0x1,%eax
  401b87:	48 01 c8             	add    %rcx,%rax
  401b8a:	48 89 45 f8          	mov    %rax,-0x8(%rbp)
  401b8e:	48 8b 45 f8          	mov    -0x8(%rbp),%rax
  401b92:	48 3b 45 b0          	cmp    -0x50(%rbp),%rax
  401b96:	72 10                	jb     401ba8 <_Z20montgomery_reductionmmm+0x98>
  401b98:	48 8b 45 b0          	mov    -0x50(%rbp),%rax
  401b9c:	48 8b 55 f8          	mov    -0x8(%rbp),%rdx
  401ba0:	48 29 c2             	sub    %rax,%rdx
  401ba3:	48 89 d0             	mov    %rdx,%rax
  401ba6:	eb 04                	jmp    401bac <_Z20montgomery_reductionmmm+0x9c>
  401ba8:	48 8b 45 f8          	mov    -0x8(%rbp),%rax
  401bac:	5d                   	pop    %rbp
  401bad:	c3                   	retq   

0000000000401bae <_Z15extended_euclidmm>:
  401bae:	55                   	push   %rbp
  401baf:	48 89 e5             	mov    %rsp,%rbp
  401bb2:	48 83 ec 50          	sub    $0x50,%rsp
  401bb6:	48 89 7d b8          	mov    %rdi,-0x48(%rbp)
  401bba:	48 89 75 b0          	mov    %rsi,-0x50(%rbp)
  401bbe:	48 8b 45 b8          	mov    -0x48(%rbp),%rax
  401bc2:	48 3b 45 b0          	cmp    -0x50(%rbp),%rax
  401bc6:	72 19                	jb     401be1 <_Z15extended_euclidmm+0x33>
  401bc8:	b9 40 41 40 00       	mov    $0x404140,%ecx
  401bcd:	ba 0b 01 00 00       	mov    $0x10b,%edx
  401bd2:	be f8 40 40 00       	mov    $0x4040f8,%esi
  401bd7:	bf 07 41 40 00       	mov    $0x404107,%edi
  401bdc:	e8 1f f1 ff ff       	callq  400d00 <__assert_fail@plt>
  401be1:	48 c7 45 c8 00 00 00 	movq   $0x0,-0x38(%rbp)
  401be8:	00 
  401be9:	48 c7 45 d0 01 00 00 	movq   $0x1,-0x30(%rbp)
  401bf0:	00 
  401bf1:	48 8b 45 b0          	mov    -0x50(%rbp),%rax
  401bf5:	48 89 45 d8          	mov    %rax,-0x28(%rbp)
  401bf9:	48 8b 45 b8          	mov    -0x48(%rbp),%rax
  401bfd:	48 89 45 e0          	mov    %rax,-0x20(%rbp)
  401c01:	eb 5f                	jmp    401c62 <_Z15extended_euclidmm+0xb4>
  401c03:	48 8b 45 d8          	mov    -0x28(%rbp),%rax
  401c07:	ba 00 00 00 00       	mov    $0x0,%edx
  401c0c:	48 f7 75 e0          	divq   -0x20(%rbp)
  401c10:	48 89 45 e8          	mov    %rax,-0x18(%rbp)
  401c14:	48 8b 45 d0          	mov    -0x30(%rbp),%rax
  401c18:	48 89 45 f0          	mov    %rax,-0x10(%rbp)
  401c1c:	48 8b 45 e0          	mov    -0x20(%rbp),%rax
  401c20:	48 89 45 f8          	mov    %rax,-0x8(%rbp)
  401c24:	48 8b 55 c8          	mov    -0x38(%rbp),%rdx
  401c28:	48 8b 45 d0          	mov    -0x30(%rbp),%rax
  401c2c:	48 0f af 45 e8       	imul   -0x18(%rbp),%rax
  401c31:	48 29 c2             	sub    %rax,%rdx
  401c34:	48 89 d0             	mov    %rdx,%rax
  401c37:	48 89 45 d0          	mov    %rax,-0x30(%rbp)
  401c3b:	48 8b 45 e8          	mov    -0x18(%rbp),%rax
  401c3f:	48 0f af 45 e0       	imul   -0x20(%rbp),%rax
  401c44:	48 8b 55 d8          	mov    -0x28(%rbp),%rdx
  401c48:	48 29 c2             	sub    %rax,%rdx
  401c4b:	48 89 d0             	mov    %rdx,%rax
  401c4e:	48 89 45 e0          	mov    %rax,-0x20(%rbp)
  401c52:	48 8b 45 f0          	mov    -0x10(%rbp),%rax
  401c56:	48 89 45 c8          	mov    %rax,-0x38(%rbp)
  401c5a:	48 8b 45 f8          	mov    -0x8(%rbp),%rax
  401c5e:	48 89 45 d8          	mov    %rax,-0x28(%rbp)
  401c62:	48 83 7d e0 00       	cmpq   $0x0,-0x20(%rbp)
  401c67:	75 9a                	jne    401c03 <_Z15extended_euclidmm+0x55>
  401c69:	48 83 7d d8 01       	cmpq   $0x1,-0x28(%rbp)
  401c6e:	76 23                	jbe    401c93 <_Z15extended_euclidmm+0xe5>
  401c70:	be 0d 41 40 00       	mov    $0x40410d,%esi
  401c75:	bf 20 61 60 00       	mov    $0x606120,%edi
  401c7a:	e8 11 f1 ff ff       	callq  400d90 <_ZStlsISt11char_traitsIcEERSt13basic_ostreamIcT_ES5_PKc@plt>
  401c7f:	be 40 0e 40 00       	mov    $0x400e40,%esi
  401c84:	48 89 c7             	mov    %rax,%rdi
  401c87:	e8 74 f1 ff ff       	callq  400e00 <_ZNSolsEPFRSoS_E@plt>
  401c8c:	b8 00 00 00 00       	mov    $0x0,%eax
  401c91:	eb 1a                	jmp    401cad <_Z15extended_euclidmm+0xff>
  401c93:	48 83 7d c8 00       	cmpq   $0x0,-0x38(%rbp)
  401c98:	79 0f                	jns    401ca9 <_Z15extended_euclidmm+0xfb>
  401c9a:	48 8b 55 c8          	mov    -0x38(%rbp),%rdx
  401c9e:	48 8b 45 b0          	mov    -0x50(%rbp),%rax
  401ca2:	48 01 d0             	add    %rdx,%rax
  401ca5:	48 89 45 c8          	mov    %rax,-0x38(%rbp)
  401ca9:	48 8b 45 c8          	mov    -0x38(%rbp),%rax
  401cad:	c9                   	leaveq 
  401cae:	c3                   	retq   
  401caf:	90                   	nop

0000000000401cb0 <_ZNSt6vectorIS_ImSaImEESaIS1_EEC1Ev>:
  401cb0:	55                   	push   %rbp
  401cb1:	48 89 e5             	mov    %rsp,%rbp
  401cb4:	48 83 ec 10          	sub    $0x10,%rsp
  401cb8:	48 89 7d f8          	mov    %rdi,-0x8(%rbp)
  401cbc:	48 8b 45 f8          	mov    -0x8(%rbp),%rax
  401cc0:	48 89 c7             	mov    %rax,%rdi
  401cc3:	e8 92 02 00 00       	callq  401f5a <_ZNSt12_Vector_baseISt6vectorImSaImEESaIS2_EEC1Ev>
  401cc8:	c9                   	leaveq 
  401cc9:	c3                   	retq   

0000000000401cca <_ZNSt6vectorIS_ImSaImEESaIS1_EED1Ev>:
  401cca:	55                   	push   %rbp
  401ccb:	48 89 e5             	mov    %rsp,%rbp
  401cce:	53                   	push   %rbx
  401ccf:	48 83 ec 18          	sub    $0x18,%rsp
  401cd3:	48 89 7d e8          	mov    %rdi,-0x18(%rbp)
  401cd7:	48 8b 45 e8          	mov    -0x18(%rbp),%rax
  401cdb:	48 89 c7             	mov    %rax,%rdi
  401cde:	e8 13 03 00 00       	callq  401ff6 <_ZNSt12_Vector_baseISt6vectorImSaImEESaIS2_EE19_M_get_Tp_allocatorEv>
  401ce3:	48 89 c2             	mov    %rax,%rdx
  401ce6:	48 8b 45 e8          	mov    -0x18(%rbp),%rax
  401cea:	48 8b 48 08          	mov    0x8(%rax),%rcx
  401cee:	48 8b 45 e8          	mov    -0x18(%rbp),%rax
  401cf2:	48 8b 00             	mov    (%rax),%rax
  401cf5:	48 89 ce             	mov    %rcx,%rsi
  401cf8:	48 89 c7             	mov    %rax,%rdi
  401cfb:	e8 04 03 00 00       	callq  402004 <_ZSt8_DestroyIPSt6vectorImSaImEES2_EvT_S4_RSaIT0_E>
  401d00:	48 8b 45 e8          	mov    -0x18(%rbp),%rax
  401d04:	48 89 c7             	mov    %rax,%rdi
  401d07:	e8 68 02 00 00       	callq  401f74 <_ZNSt12_Vector_baseISt6vectorImSaImEESaIS2_EED1Ev>
  401d0c:	eb 1a                	jmp    401d28 <_ZNSt6vectorIS_ImSaImEESaIS1_EED1Ev+0x5e>
  401d0e:	48 89 c3             	mov    %rax,%rbx
  401d11:	48 8b 45 e8          	mov    -0x18(%rbp),%rax
  401d15:	48 89 c7             	mov    %rax,%rdi
  401d18:	e8 57 02 00 00       	callq  401f74 <_ZNSt12_Vector_baseISt6vectorImSaImEESaIS2_EED1Ev>
  401d1d:	48 89 d8             	mov    %rbx,%rax
  401d20:	48 89 c7             	mov    %rax,%rdi
  401d23:	e8 58 f1 ff ff       	callq  400e80 <_Unwind_Resume@plt>
  401d28:	48 83 c4 18          	add    $0x18,%rsp
  401d2c:	5b                   	pop    %rbx
  401d2d:	5d                   	pop    %rbp
  401d2e:	c3                   	retq   
  401d2f:	90                   	nop

0000000000401d30 <_ZNSt6vectorImSaImEEC1Ev>:
  401d30:	55                   	push   %rbp
  401d31:	48 89 e5             	mov    %rsp,%rbp
  401d34:	48 83 ec 10          	sub    $0x10,%rsp
  401d38:	48 89 7d f8          	mov    %rdi,-0x8(%rbp)
  401d3c:	48 8b 45 f8          	mov    -0x8(%rbp),%rax
  401d40:	48 89 c7             	mov    %rax,%rdi
  401d43:	e8 00 03 00 00       	callq  402048 <_ZNSt12_Vector_baseImSaImEEC1Ev>
  401d48:	c9                   	leaveq 
  401d49:	c3                   	retq   

0000000000401d4a <_ZNSt6vectorImSaImEED1Ev>:
  401d4a:	55                   	push   %rbp
  401d4b:	48 89 e5             	mov    %rsp,%rbp
  401d4e:	53                   	push   %rbx
  401d4f:	48 83 ec 18          	sub    $0x18,%rsp
  401d53:	48 89 7d e8          	mov    %rdi,-0x18(%rbp)
  401d57:	48 8b 45 e8          	mov    -0x18(%rbp),%rax
  401d5b:	48 89 c7             	mov    %rax,%rdi
  401d5e:	e8 71 03 00 00       	callq  4020d4 <_ZNSt12_Vector_baseImSaImEE19_M_get_Tp_allocatorEv>
  401d63:	48 89 c2             	mov    %rax,%rdx
  401d66:	48 8b 45 e8          	mov    -0x18(%rbp),%rax
  401d6a:	48 8b 48 08          	mov    0x8(%rax),%rcx
  401d6e:	48 8b 45 e8          	mov    -0x18(%rbp),%rax
  401d72:	48 8b 00             	mov    (%rax),%rax
  401d75:	48 89 ce             	mov    %rcx,%rsi
  401d78:	48 89 c7             	mov    %rax,%rdi
  401d7b:	e8 62 03 00 00       	callq  4020e2 <_ZSt8_DestroyIPmmEvT_S1_RSaIT0_E>
  401d80:	48 8b 45 e8          	mov    -0x18(%rbp),%rax
  401d84:	48 89 c7             	mov    %rax,%rdi
  401d87:	e8 d6 02 00 00       	callq  402062 <_ZNSt12_Vector_baseImSaImEED1Ev>
  401d8c:	eb 1a                	jmp    401da8 <_ZNSt6vectorImSaImEED1Ev+0x5e>
  401d8e:	48 89 c3             	mov    %rax,%rbx
  401d91:	48 8b 45 e8          	mov    -0x18(%rbp),%rax
  401d95:	48 89 c7             	mov    %rax,%rdi
  401d98:	e8 c5 02 00 00       	callq  402062 <_ZNSt12_Vector_baseImSaImEED1Ev>
  401d9d:	48 89 d8             	mov    %rbx,%rax
  401da0:	48 89 c7             	mov    %rax,%rdi
  401da3:	e8 d8 f0 ff ff       	callq  400e80 <_Unwind_Resume@plt>
  401da8:	48 83 c4 18          	add    $0x18,%rsp
  401dac:	5b                   	pop    %rbx
  401dad:	5d                   	pop    %rbp
  401dae:	c3                   	retq   
  401daf:	90                   	nop

0000000000401db0 <_ZNSt6vectorImSaImEE9push_backERKm>:
  401db0:	55                   	push   %rbp
  401db1:	48 89 e5             	mov    %rsp,%rbp
  401db4:	48 83 ec 10          	sub    $0x10,%rsp
  401db8:	48 89 7d f8          	mov    %rdi,-0x8(%rbp)
  401dbc:	48 89 75 f0          	mov    %rsi,-0x10(%rbp)
  401dc0:	48 8b 45 f8          	mov    -0x8(%rbp),%rax
  401dc4:	48 8b 50 08          	mov    0x8(%rax),%rdx
  401dc8:	48 8b 45 f8          	mov    -0x8(%rbp),%rax
  401dcc:	48 8b 40 10          	mov    0x10(%rax),%rax
  401dd0:	48 39 c2             	cmp    %rax,%rdx
  401dd3:	74 31                	je     401e06 <_ZNSt6vectorImSaImEE9push_backERKm+0x56>
  401dd5:	48 8b 45 f8          	mov    -0x8(%rbp),%rax
  401dd9:	48 8b 48 08          	mov    0x8(%rax),%rcx
  401ddd:	48 8b 45 f8          	mov    -0x8(%rbp),%rax
  401de1:	48 8b 55 f0          	mov    -0x10(%rbp),%rdx
  401de5:	48 89 ce             	mov    %rcx,%rsi
  401de8:	48 89 c7             	mov    %rax,%rdi
  401deb:	e8 1b 03 00 00       	callq  40210b <_ZN9__gnu_cxx14__alloc_traitsISaImEE9constructImEEvRS1_PmRKT_>
  401df0:	48 8b 45 f8          	mov    -0x8(%rbp),%rax
  401df4:	48 8b 40 08          	mov    0x8(%rax),%rax
  401df8:	48 8d 50 08          	lea    0x8(%rax),%rdx
  401dfc:	48 8b 45 f8          	mov    -0x8(%rbp),%rax
  401e00:	48 89 50 08          	mov    %rdx,0x8(%rax)
  401e04:	eb 22                	jmp    401e28 <_ZNSt6vectorImSaImEE9push_backERKm+0x78>
  401e06:	48 8b 45 f8          	mov    -0x8(%rbp),%rax
  401e0a:	48 89 c7             	mov    %rax,%rdi
  401e0d:	e8 10 06 00 00       	callq  402422 <_ZNSt6vectorImSaImEE3endEv>
  401e12:	48 89 c1             	mov    %rax,%rcx
  401e15:	48 8b 55 f0          	mov    -0x10(%rbp),%rdx
  401e19:	48 8b 45 f8          	mov    -0x8(%rbp),%rax
  401e1d:	48 89 ce             	mov    %rcx,%rsi
  401e20:	48 89 c7             	mov    %rax,%rdi
  401e23:	e8 10 03 00 00       	callq  402138 <_ZNSt6vectorImSaImEE13_M_insert_auxEN9__gnu_cxx17__normal_iteratorIPmS1_EERKm>
  401e28:	c9                   	leaveq 
  401e29:	c3                   	retq   

0000000000401e2a <_ZNSt6vectorIS_ImSaImEESaIS1_EE9push_backERKS1_>:
  401e2a:	55                   	push   %rbp
  401e2b:	48 89 e5             	mov    %rsp,%rbp
  401e2e:	48 83 ec 10          	sub    $0x10,%rsp
  401e32:	48 89 7d f8          	mov    %rdi,-0x8(%rbp)
  401e36:	48 89 75 f0          	mov    %rsi,-0x10(%rbp)
  401e3a:	48 8b 45 f8          	mov    -0x8(%rbp),%rax
  401e3e:	48 8b 50 08          	mov    0x8(%rax),%rdx
  401e42:	48 8b 45 f8          	mov    -0x8(%rbp),%rax
  401e46:	48 8b 40 10          	mov    0x10(%rax),%rax
  401e4a:	48 39 c2             	cmp    %rax,%rdx
  401e4d:	74 31                	je     401e80 <_ZNSt6vectorIS_ImSaImEESaIS1_EE9push_backERKS1_+0x56>
  401e4f:	48 8b 45 f8          	mov    -0x8(%rbp),%rax
  401e53:	48 8b 48 08          	mov    0x8(%rax),%rcx
  401e57:	48 8b 45 f8          	mov    -0x8(%rbp),%rax
  401e5b:	48 8b 55 f0          	mov    -0x10(%rbp),%rdx
  401e5f:	48 89 ce             	mov    %rcx,%rsi
  401e62:	48 89 c7             	mov    %rax,%rdi
  401e65:	e8 e1 05 00 00       	callq  40244b <_ZN9__gnu_cxx14__alloc_traitsISaISt6vectorImSaImEEEE9constructIS3_EEvRS4_PS3_RKT_>
  401e6a:	48 8b 45 f8          	mov    -0x8(%rbp),%rax
  401e6e:	48 8b 40 08          	mov    0x8(%rax),%rax
  401e72:	48 8d 50 18          	lea    0x18(%rax),%rdx
  401e76:	48 8b 45 f8          	mov    -0x8(%rbp),%rax
  401e7a:	48 89 50 08          	mov    %rdx,0x8(%rax)
  401e7e:	eb 22                	jmp    401ea2 <_ZNSt6vectorIS_ImSaImEESaIS1_EE9push_backERKS1_+0x78>
  401e80:	48 8b 45 f8          	mov    -0x8(%rbp),%rax
  401e84:	48 89 c7             	mov    %rax,%rdi
  401e87:	e8 34 09 00 00       	callq  4027c0 <_ZNSt6vectorIS_ImSaImEESaIS1_EE3endEv>
  401e8c:	48 89 c1             	mov    %rax,%rcx
  401e8f:	48 8b 55 f0          	mov    -0x10(%rbp),%rdx
  401e93:	48 8b 45 f8          	mov    -0x8(%rbp),%rax
  401e97:	48 89 ce             	mov    %rcx,%rsi
  401e9a:	48 89 c7             	mov    %rax,%rdi
  401e9d:	e8 d6 05 00 00       	callq  402478 <_ZNSt6vectorIS_ImSaImEESaIS1_EE13_M_insert_auxEN9__gnu_cxx17__normal_iteratorIPS1_S3_EERKS1_>
  401ea2:	c9                   	leaveq 
  401ea3:	c3                   	retq   

0000000000401ea4 <_ZNKSt6vectorIS_ImSaImEESaIS1_EE4sizeEv>:
  401ea4:	55                   	push   %rbp
  401ea5:	48 89 e5             	mov    %rsp,%rbp
  401ea8:	48 89 7d f8          	mov    %rdi,-0x8(%rbp)
  401eac:	48 8b 45 f8          	mov    -0x8(%rbp),%rax
  401eb0:	48 8b 40 08          	mov    0x8(%rax),%rax
  401eb4:	48 89 c2             	mov    %rax,%rdx
  401eb7:	48 8b 45 f8          	mov    -0x8(%rbp),%rax
  401ebb:	48 8b 00             	mov    (%rax),%rax
  401ebe:	48 29 c2             	sub    %rax,%rdx
  401ec1:	48 89 d0             	mov    %rdx,%rax
  401ec4:	48 c1 f8 03          	sar    $0x3,%rax
  401ec8:	48 89 c2             	mov    %rax,%rdx
  401ecb:	48 b8 ab aa aa aa aa 	movabs $0xaaaaaaaaaaaaaaab,%rax
  401ed2:	aa aa aa 
  401ed5:	48 0f af c2          	imul   %rdx,%rax
  401ed9:	5d                   	pop    %rbp
  401eda:	c3                   	retq   
  401edb:	90                   	nop

0000000000401edc <_ZNSt6vectorIS_ImSaImEESaIS1_EEixEm>:
  401edc:	55                   	push   %rbp
  401edd:	48 89 e5             	mov    %rsp,%rbp
  401ee0:	48 89 7d f8          	mov    %rdi,-0x8(%rbp)
  401ee4:	48 89 75 f0          	mov    %rsi,-0x10(%rbp)
  401ee8:	48 8b 45 f8          	mov    -0x8(%rbp),%rax
  401eec:	48 8b 08             	mov    (%rax),%rcx
  401eef:	48 8b 55 f0          	mov    -0x10(%rbp),%rdx
  401ef3:	48 89 d0             	mov    %rdx,%rax
  401ef6:	48 01 c0             	add    %rax,%rax
  401ef9:	48 01 d0             	add    %rdx,%rax
  401efc:	48 c1 e0 03          	shl    $0x3,%rax
  401f00:	48 01 c8             	add    %rcx,%rax
  401f03:	5d                   	pop    %rbp
  401f04:	c3                   	retq   
  401f05:	90                   	nop

0000000000401f06 <_ZNSt6vectorImSaImEEixEm>:
  401f06:	55                   	push   %rbp
  401f07:	48 89 e5             	mov    %rsp,%rbp
  401f0a:	48 89 7d f8          	mov    %rdi,-0x8(%rbp)
  401f0e:	48 89 75 f0          	mov    %rsi,-0x10(%rbp)
  401f12:	48 8b 45 f8          	mov    -0x8(%rbp),%rax
  401f16:	48 8b 00             	mov    (%rax),%rax
  401f19:	48 8b 55 f0          	mov    -0x10(%rbp),%rdx
  401f1d:	48 c1 e2 03          	shl    $0x3,%rdx
  401f21:	48 01 d0             	add    %rdx,%rax
  401f24:	5d                   	pop    %rbp
  401f25:	c3                   	retq   

0000000000401f26 <_ZSt12__niter_baseIPmENSt11_Niter_baseIT_E13iterator_typeES2_>:
  401f26:	55                   	push   %rbp
  401f27:	48 89 e5             	mov    %rsp,%rbp
  401f2a:	48 83 ec 10          	sub    $0x10,%rsp
  401f2e:	48 89 7d f8          	mov    %rdi,-0x8(%rbp)
  401f32:	48 8b 45 f8          	mov    -0x8(%rbp),%rax
  401f36:	48 89 c7             	mov    %rax,%rdi
  401f39:	e8 ab 08 00 00       	callq  4027e9 <_ZNSt10_Iter_baseIPmLb0EE7_S_baseES0_>
  401f3e:	c9                   	leaveq 
  401f3f:	c3                   	retq   

0000000000401f40 <_ZNSt12_Vector_baseISt6vectorImSaImEESaIS2_EE12_Vector_implD1Ev>:
  401f40:	55                   	push   %rbp
  401f41:	48 89 e5             	mov    %rsp,%rbp
  401f44:	48 83 ec 10          	sub    $0x10,%rsp
  401f48:	48 89 7d f8          	mov    %rdi,-0x8(%rbp)
  401f4c:	48 8b 45 f8          	mov    -0x8(%rbp),%rax
  401f50:	48 89 c7             	mov    %rax,%rdi
  401f53:	e8 de 08 00 00       	callq  402836 <_ZNSaISt6vectorImSaImEEED1Ev>
  401f58:	c9                   	leaveq 
  401f59:	c3                   	retq   

0000000000401f5a <_ZNSt12_Vector_baseISt6vectorImSaImEESaIS2_EEC1Ev>:
  401f5a:	55                   	push   %rbp
  401f5b:	48 89 e5             	mov    %rsp,%rbp
  401f5e:	48 83 ec 10          	sub    $0x10,%rsp
  401f62:	48 89 7d f8          	mov    %rdi,-0x8(%rbp)
  401f66:	48 8b 45 f8          	mov    -0x8(%rbp),%rax
  401f6a:	48 89 c7             	mov    %rax,%rdi
  401f6d:	e8 86 08 00 00       	callq  4027f8 <_ZNSt12_Vector_baseISt6vectorImSaImEESaIS2_EE12_Vector_implC1Ev>
  401f72:	c9                   	leaveq 
  401f73:	c3                   	retq   

0000000000401f74 <_ZNSt12_Vector_baseISt6vectorImSaImEESaIS2_EED1Ev>:
  401f74:	55                   	push   %rbp
  401f75:	48 89 e5             	mov    %rsp,%rbp
  401f78:	53                   	push   %rbx
  401f79:	48 83 ec 18          	sub    $0x18,%rsp
  401f7d:	48 89 7d e8          	mov    %rdi,-0x18(%rbp)
  401f81:	48 8b 45 e8          	mov    -0x18(%rbp),%rax
  401f85:	48 8b 40 10          	mov    0x10(%rax),%rax
  401f89:	48 89 c2             	mov    %rax,%rdx
  401f8c:	48 8b 45 e8          	mov    -0x18(%rbp),%rax
  401f90:	48 8b 00             	mov    (%rax),%rax
  401f93:	48 29 c2             	sub    %rax,%rdx
  401f96:	48 89 d0             	mov    %rdx,%rax
  401f99:	48 c1 f8 03          	sar    $0x3,%rax
  401f9d:	48 89 c2             	mov    %rax,%rdx
  401fa0:	48 b8 ab aa aa aa aa 	movabs $0xaaaaaaaaaaaaaaab,%rax
  401fa7:	aa aa aa 
  401faa:	48 0f af c2          	imul   %rdx,%rax
  401fae:	48 89 c2             	mov    %rax,%rdx
  401fb1:	48 8b 45 e8          	mov    -0x18(%rbp),%rax
  401fb5:	48 8b 08             	mov    (%rax),%rcx
  401fb8:	48 8b 45 e8          	mov    -0x18(%rbp),%rax
  401fbc:	48 89 ce             	mov    %rcx,%rsi
  401fbf:	48 89 c7             	mov    %rax,%rdi
  401fc2:	e8 89 08 00 00       	callq  402850 <_ZNSt12_Vector_baseISt6vectorImSaImEESaIS2_EE13_M_deallocateEPS2_m>
  401fc7:	48 8b 45 e8          	mov    -0x18(%rbp),%rax
  401fcb:	48 89 c7             	mov    %rax,%rdi
  401fce:	e8 6d ff ff ff       	callq  401f40 <_ZNSt12_Vector_baseISt6vectorImSaImEESaIS2_EE12_Vector_implD1Ev>
  401fd3:	eb 1a                	jmp    401fef <_ZNSt12_Vector_baseISt6vectorImSaImEESaIS2_EED1Ev+0x7b>
  401fd5:	48 89 c3             	mov    %rax,%rbx
  401fd8:	48 8b 45 e8          	mov    -0x18(%rbp),%rax
  401fdc:	48 89 c7             	mov    %rax,%rdi
  401fdf:	e8 5c ff ff ff       	callq  401f40 <_ZNSt12_Vector_baseISt6vectorImSaImEESaIS2_EE12_Vector_implD1Ev>
  401fe4:	48 89 d8             	mov    %rbx,%rax
  401fe7:	48 89 c7             	mov    %rax,%rdi
  401fea:	e8 91 ee ff ff       	callq  400e80 <_Unwind_Resume@plt>
  401fef:	48 83 c4 18          	add    $0x18,%rsp
  401ff3:	5b                   	pop    %rbx
  401ff4:	5d                   	pop    %rbp
  401ff5:	c3                   	retq   

0000000000401ff6 <_ZNSt12_Vector_baseISt6vectorImSaImEESaIS2_EE19_M_get_Tp_allocatorEv>:
  401ff6:	55                   	push   %rbp
  401ff7:	48 89 e5             	mov    %rsp,%rbp
  401ffa:	48 89 7d f8          	mov    %rdi,-0x8(%rbp)
  401ffe:	48 8b 45 f8          	mov    -0x8(%rbp),%rax
  402002:	5d                   	pop    %rbp
  402003:	c3                   	retq   

0000000000402004 <_ZSt8_DestroyIPSt6vectorImSaImEES2_EvT_S4_RSaIT0_E>:
  402004:	55                   	push   %rbp
  402005:	48 89 e5             	mov    %rsp,%rbp
  402008:	48 83 ec 20          	sub    $0x20,%rsp
  40200c:	48 89 7d f8          	mov    %rdi,-0x8(%rbp)
  402010:	48 89 75 f0          	mov    %rsi,-0x10(%rbp)
  402014:	48 89 55 e8          	mov    %rdx,-0x18(%rbp)
  402018:	48 8b 55 f0          	mov    -0x10(%rbp),%rdx
  40201c:	48 8b 45 f8          	mov    -0x8(%rbp),%rax
  402020:	48 89 d6             	mov    %rdx,%rsi
  402023:	48 89 c7             	mov    %rax,%rdi
  402026:	e8 59 08 00 00       	callq  402884 <_ZSt8_DestroyIPSt6vectorImSaImEEEvT_S4_>
  40202b:	c9                   	leaveq 
  40202c:	c3                   	retq   
  40202d:	90                   	nop

000000000040202e <_ZNSt12_Vector_baseImSaImEE12_Vector_implD1Ev>:
  40202e:	55                   	push   %rbp
  40202f:	48 89 e5             	mov    %rsp,%rbp
  402032:	48 83 ec 10          	sub    $0x10,%rsp
  402036:	48 89 7d f8          	mov    %rdi,-0x8(%rbp)
  40203a:	48 8b 45 f8          	mov    -0x8(%rbp),%rax
  40203e:	48 89 c7             	mov    %rax,%rdi
  402041:	e8 a2 08 00 00       	callq  4028e8 <_ZNSaImED1Ev>
  402046:	c9                   	leaveq 
  402047:	c3                   	retq   

0000000000402048 <_ZNSt12_Vector_baseImSaImEEC1Ev>:
  402048:	55                   	push   %rbp
  402049:	48 89 e5             	mov    %rsp,%rbp
  40204c:	48 83 ec 10          	sub    $0x10,%rsp
  402050:	48 89 7d f8          	mov    %rdi,-0x8(%rbp)
  402054:	48 8b 45 f8          	mov    -0x8(%rbp),%rax
  402058:	48 89 c7             	mov    %rax,%rdi
  40205b:	e8 4a 08 00 00       	callq  4028aa <_ZNSt12_Vector_baseImSaImEE12_Vector_implC1Ev>
  402060:	c9                   	leaveq 
  402061:	c3                   	retq   

0000000000402062 <_ZNSt12_Vector_baseImSaImEED1Ev>:
  402062:	55                   	push   %rbp
  402063:	48 89 e5             	mov    %rsp,%rbp
  402066:	53                   	push   %rbx
  402067:	48 83 ec 18          	sub    $0x18,%rsp
  40206b:	48 89 7d e8          	mov    %rdi,-0x18(%rbp)
  40206f:	48 8b 45 e8          	mov    -0x18(%rbp),%rax
  402073:	48 8b 40 10          	mov    0x10(%rax),%rax
  402077:	48 89 c2             	mov    %rax,%rdx
  40207a:	48 8b 45 e8          	mov    -0x18(%rbp),%rax
  40207e:	48 8b 00             	mov    (%rax),%rax
  402081:	48 29 c2             	sub    %rax,%rdx
  402084:	48 89 d0             	mov    %rdx,%rax
  402087:	48 c1 f8 03          	sar    $0x3,%rax
  40208b:	48 89 c2             	mov    %rax,%rdx
  40208e:	48 8b 45 e8          	mov    -0x18(%rbp),%rax
  402092:	48 8b 08             	mov    (%rax),%rcx
  402095:	48 8b 45 e8          	mov    -0x18(%rbp),%rax
  402099:	48 89 ce             	mov    %rcx,%rsi
  40209c:	48 89 c7             	mov    %rax,%rdi
  40209f:	e8 5e 08 00 00       	callq  402902 <_ZNSt12_Vector_baseImSaImEE13_M_deallocateEPmm>
  4020a4:	48 8b 45 e8          	mov    -0x18(%rbp),%rax
  4020a8:	48 89 c7             	mov    %rax,%rdi
  4020ab:	e8 7e ff ff ff       	callq  40202e <_ZNSt12_Vector_baseImSaImEE12_Vector_implD1Ev>
  4020b0:	eb 1a                	jmp    4020cc <_ZNSt12_Vector_baseImSaImEED1Ev+0x6a>
  4020b2:	48 89 c3             	mov    %rax,%rbx
  4020b5:	48 8b 45 e8          	mov    -0x18(%rbp),%rax
  4020b9:	48 89 c7             	mov    %rax,%rdi
  4020bc:	e8 6d ff ff ff       	callq  40202e <_ZNSt12_Vector_baseImSaImEE12_Vector_implD1Ev>
  4020c1:	48 89 d8             	mov    %rbx,%rax
  4020c4:	48 89 c7             	mov    %rax,%rdi
  4020c7:	e8 b4 ed ff ff       	callq  400e80 <_Unwind_Resume@plt>
  4020cc:	48 83 c4 18          	add    $0x18,%rsp
  4020d0:	5b                   	pop    %rbx
  4020d1:	5d                   	pop    %rbp
  4020d2:	c3                   	retq   
  4020d3:	90                   	nop

00000000004020d4 <_ZNSt12_Vector_baseImSaImEE19_M_get_Tp_allocatorEv>:
  4020d4:	55                   	push   %rbp
  4020d5:	48 89 e5             	mov    %rsp,%rbp
  4020d8:	48 89 7d f8          	mov    %rdi,-0x8(%rbp)
  4020dc:	48 8b 45 f8          	mov    -0x8(%rbp),%rax
  4020e0:	5d                   	pop    %rbp
  4020e1:	c3                   	retq   

00000000004020e2 <_ZSt8_DestroyIPmmEvT_S1_RSaIT0_E>:
  4020e2:	55                   	push   %rbp
  4020e3:	48 89 e5             	mov    %rsp,%rbp
  4020e6:	48 83 ec 20          	sub    $0x20,%rsp
  4020ea:	48 89 7d f8          	mov    %rdi,-0x8(%rbp)
  4020ee:	48 89 75 f0          	mov    %rsi,-0x10(%rbp)
  4020f2:	48 89 55 e8          	mov    %rdx,-0x18(%rbp)
  4020f6:	48 8b 55 f0          	mov    -0x10(%rbp),%rdx
  4020fa:	48 8b 45 f8          	mov    -0x8(%rbp),%rax
  4020fe:	48 89 d6             	mov    %rdx,%rsi
  402101:	48 89 c7             	mov    %rax,%rdi
  402104:	e8 2d 08 00 00       	callq  402936 <_ZSt8_DestroyIPmEvT_S1_>
  402109:	c9                   	leaveq 
  40210a:	c3                   	retq   

000000000040210b <_ZN9__gnu_cxx14__alloc_traitsISaImEE9constructImEEvRS1_PmRKT_>:
  40210b:	55                   	push   %rbp
  40210c:	48 89 e5             	mov    %rsp,%rbp
  40210f:	48 83 ec 20          	sub    $0x20,%rsp
  402113:	48 89 7d f8          	mov    %rdi,-0x8(%rbp)
  402117:	48 89 75 f0          	mov    %rsi,-0x10(%rbp)
  40211b:	48 89 55 e8          	mov    %rdx,-0x18(%rbp)
  40211f:	48 8b 55 e8          	mov    -0x18(%rbp),%rdx
  402123:	48 8b 4d f0          	mov    -0x10(%rbp),%rcx
  402127:	48 8b 45 f8          	mov    -0x8(%rbp),%rax
  40212b:	48 89 ce             	mov    %rcx,%rsi
  40212e:	48 89 c7             	mov    %rax,%rdi
  402131:	e8 26 08 00 00       	callq  40295c <_ZN9__gnu_cxx13new_allocatorImE9constructEPmRKm>
  402136:	c9                   	leaveq 
  402137:	c3                   	retq   

0000000000402138 <_ZNSt6vectorImSaImEE13_M_insert_auxEN9__gnu_cxx17__normal_iteratorIPmS1_EERKm>:
  402138:	55                   	push   %rbp
  402139:	48 89 e5             	mov    %rsp,%rbp
  40213c:	41 54                	push   %r12
  40213e:	53                   	push   %rbx
  40213f:	48 83 ec 50          	sub    $0x50,%rsp
  402143:	48 89 7d b8          	mov    %rdi,-0x48(%rbp)
  402147:	48 89 75 b0          	mov    %rsi,-0x50(%rbp)
  40214b:	48 89 55 a8          	mov    %rdx,-0x58(%rbp)
  40214f:	48 8b 45 b8          	mov    -0x48(%rbp),%rax
  402153:	48 8b 50 08          	mov    0x8(%rax),%rdx
  402157:	48 8b 45 b8          	mov    -0x48(%rbp),%rax
  40215b:	48 8b 40 10          	mov    0x10(%rax),%rax
  40215f:	48 39 c2             	cmp    %rax,%rdx
  402162:	0f 84 8f 00 00 00    	je     4021f7 <_ZNSt6vectorImSaImEE13_M_insert_auxEN9__gnu_cxx17__normal_iteratorIPmS1_EERKm+0xbf>
  402168:	48 8b 45 b8          	mov    -0x48(%rbp),%rax
  40216c:	48 8b 40 08          	mov    0x8(%rax),%rax
  402170:	48 8d 50 f8          	lea    -0x8(%rax),%rdx
  402174:	48 8b 45 b8          	mov    -0x48(%rbp),%rax
  402178:	48 8b 48 08          	mov    0x8(%rax),%rcx
  40217c:	48 8b 45 b8          	mov    -0x48(%rbp),%rax
  402180:	48 89 ce             	mov    %rcx,%rsi
  402183:	48 89 c7             	mov    %rax,%rdi
  402186:	e8 80 ff ff ff       	callq  40210b <_ZN9__gnu_cxx14__alloc_traitsISaImEE9constructImEEvRS1_PmRKT_>
  40218b:	48 8b 45 b8          	mov    -0x48(%rbp),%rax
  40218f:	48 8b 40 08          	mov    0x8(%rax),%rax
  402193:	48 8d 50 08          	lea    0x8(%rax),%rdx
  402197:	48 8b 45 b8          	mov    -0x48(%rbp),%rax
  40219b:	48 89 50 08          	mov    %rdx,0x8(%rax)
  40219f:	48 8b 45 a8          	mov    -0x58(%rbp),%rax
  4021a3:	48 8b 00             	mov    (%rax),%rax
  4021a6:	48 89 45 d0          	mov    %rax,-0x30(%rbp)
  4021aa:	48 8b 45 b8          	mov    -0x48(%rbp),%rax
  4021ae:	48 8b 40 08          	mov    0x8(%rax),%rax
  4021b2:	4c 8d 60 f8          	lea    -0x8(%rax),%r12
  4021b6:	48 8b 45 b8          	mov    -0x48(%rbp),%rax
  4021ba:	48 8b 40 08          	mov    0x8(%rax),%rax
  4021be:	48 8d 58 f0          	lea    -0x10(%rax),%rbx
  4021c2:	48 8d 45 b0          	lea    -0x50(%rbp),%rax
  4021c6:	48 89 c7             	mov    %rax,%rdi
  4021c9:	e8 c4 07 00 00       	callq  402992 <_ZNK9__gnu_cxx17__normal_iteratorIPmSt6vectorImSaImEEE4baseEv>
  4021ce:	48 8b 00             	mov    (%rax),%rax
  4021d1:	4c 89 e2             	mov    %r12,%rdx
  4021d4:	48 89 de             	mov    %rbx,%rsi
  4021d7:	48 89 c7             	mov    %rax,%rdi
  4021da:	e8 c1 07 00 00       	callq  4029a0 <_ZSt13copy_backwardIPmS0_ET0_T_S2_S1_>
  4021df:	48 8d 45 b0          	lea    -0x50(%rbp),%rax
  4021e3:	48 89 c7             	mov    %rax,%rdi
  4021e6:	e8 fb 07 00 00       	callq  4029e6 <_ZNK9__gnu_cxx17__normal_iteratorIPmSt6vectorImSaImEEEdeEv>
  4021eb:	48 8b 55 d0          	mov    -0x30(%rbp),%rdx
  4021ef:	48 89 10             	mov    %rdx,(%rax)
  4021f2:	e9 21 02 00 00       	jmpq   402418 <_ZNSt6vectorImSaImEE13_M_insert_auxEN9__gnu_cxx17__normal_iteratorIPmS1_EERKm+0x2e0>
  4021f7:	48 8b 45 b8          	mov    -0x48(%rbp),%rax
  4021fb:	ba 28 41 40 00       	mov    $0x404128,%edx
  402200:	be 01 00 00 00       	mov    $0x1,%esi
  402205:	48 89 c7             	mov    %rax,%rdi
  402208:	e8 eb 07 00 00       	callq  4029f8 <_ZNKSt6vectorImSaImEE12_M_check_lenEmPKc>
  40220d:	48 89 45 d8          	mov    %rax,-0x28(%rbp)
  402211:	48 8b 45 b8          	mov    -0x48(%rbp),%rax
  402215:	48 89 c7             	mov    %rax,%rdi
  402218:	e8 a5 08 00 00       	callq  402ac2 <_ZNSt6vectorImSaImEE5beginEv>
  40221d:	48 89 45 c0          	mov    %rax,-0x40(%rbp)
  402221:	48 8d 55 c0          	lea    -0x40(%rbp),%rdx
  402225:	48 8d 45 b0          	lea    -0x50(%rbp),%rax
  402229:	48 89 d6             	mov    %rdx,%rsi
  40222c:	48 89 c7             	mov    %rax,%rdi
  40222f:	e8 b3 08 00 00       	callq  402ae7 <_ZN9__gnu_cxxmiIPmSt6vectorImSaImEEEENS_17__normal_iteratorIT_T0_E15difference_typeERKS8_SB_>
  402234:	48 89 45 e0          	mov    %rax,-0x20(%rbp)
  402238:	48 8b 45 b8          	mov    -0x48(%rbp),%rax
  40223c:	48 8b 55 d8          	mov    -0x28(%rbp),%rdx
  402240:	48 89 d6             	mov    %rdx,%rsi
  402243:	48 89 c7             	mov    %rax,%rdi
  402246:	e8 df 08 00 00       	callq  402b2a <_ZNSt12_Vector_baseImSaImEE11_M_allocateEm>
  40224b:	48 89 45 e8          	mov    %rax,-0x18(%rbp)
  40224f:	48 8b 45 e8          	mov    -0x18(%rbp),%rax
  402253:	48 89 45 c8          	mov    %rax,-0x38(%rbp)
  402257:	48 8b 45 e0          	mov    -0x20(%rbp),%rax
  40225b:	48 8d 14 c5 00 00 00 	lea    0x0(,%rax,8),%rdx
  402262:	00 
  402263:	48 8b 45 e8          	mov    -0x18(%rbp),%rax
  402267:	48 8d 0c 02          	lea    (%rdx,%rax,1),%rcx
  40226b:	48 8b 45 b8          	mov    -0x48(%rbp),%rax
  40226f:	48 8b 55 a8          	mov    -0x58(%rbp),%rdx
  402273:	48 89 ce             	mov    %rcx,%rsi
  402276:	48 89 c7             	mov    %rax,%rdi
  402279:	e8 8d fe ff ff       	callq  40210b <_ZN9__gnu_cxx14__alloc_traitsISaImEE9constructImEEvRS1_PmRKT_>
  40227e:	48 c7 45 c8 00 00 00 	movq   $0x0,-0x38(%rbp)
  402285:	00 
  402286:	48 8b 45 b8          	mov    -0x48(%rbp),%rax
  40228a:	48 89 c7             	mov    %rax,%rdi
  40228d:	e8 42 fe ff ff       	callq  4020d4 <_ZNSt12_Vector_baseImSaImEE19_M_get_Tp_allocatorEv>
  402292:	48 89 c3             	mov    %rax,%rbx
  402295:	48 8d 45 b0          	lea    -0x50(%rbp),%rax
  402299:	48 89 c7             	mov    %rax,%rdi
  40229c:	e8 f1 06 00 00       	callq  402992 <_ZNK9__gnu_cxx17__normal_iteratorIPmSt6vectorImSaImEEE4baseEv>
  4022a1:	48 8b 30             	mov    (%rax),%rsi
  4022a4:	48 8b 45 b8          	mov    -0x48(%rbp),%rax
  4022a8:	48 8b 00             	mov    (%rax),%rax
  4022ab:	48 8b 55 e8          	mov    -0x18(%rbp),%rdx
  4022af:	48 89 d9             	mov    %rbx,%rcx
  4022b2:	48 89 c7             	mov    %rax,%rdi
  4022b5:	e8 a8 08 00 00       	callq  402b62 <_ZSt34__uninitialized_move_if_noexcept_aIPmS0_SaImEET0_T_S3_S2_RT1_>
  4022ba:	48 89 45 c8          	mov    %rax,-0x38(%rbp)
  4022be:	48 83 45 c8 08       	addq   $0x8,-0x38(%rbp)
  4022c3:	48 8b 45 b8          	mov    -0x48(%rbp),%rax
  4022c7:	48 89 c7             	mov    %rax,%rdi
  4022ca:	e8 05 fe ff ff       	callq  4020d4 <_ZNSt12_Vector_baseImSaImEE19_M_get_Tp_allocatorEv>
  4022cf:	49 89 c4             	mov    %rax,%r12
  4022d2:	48 8b 45 b8          	mov    -0x48(%rbp),%rax
  4022d6:	48 8b 58 08          	mov    0x8(%rax),%rbx
  4022da:	48 8d 45 b0          	lea    -0x50(%rbp),%rax
  4022de:	48 89 c7             	mov    %rax,%rdi
  4022e1:	e8 ac 06 00 00       	callq  402992 <_ZNK9__gnu_cxx17__normal_iteratorIPmSt6vectorImSaImEEE4baseEv>
  4022e6:	48 8b 00             	mov    (%rax),%rax
  4022e9:	48 8b 55 c8          	mov    -0x38(%rbp),%rdx
  4022ed:	4c 89 e1             	mov    %r12,%rcx
  4022f0:	48 89 de             	mov    %rbx,%rsi
  4022f3:	48 89 c7             	mov    %rax,%rdi
  4022f6:	e8 67 08 00 00       	callq  402b62 <_ZSt34__uninitialized_move_if_noexcept_aIPmS0_SaImEET0_T_S3_S2_RT1_>
  4022fb:	48 89 45 c8          	mov    %rax,-0x38(%rbp)
  4022ff:	48 8b 45 b8          	mov    -0x48(%rbp),%rax
  402303:	48 89 c7             	mov    %rax,%rdi
  402306:	e8 c9 fd ff ff       	callq  4020d4 <_ZNSt12_Vector_baseImSaImEE19_M_get_Tp_allocatorEv>
  40230b:	48 89 c2             	mov    %rax,%rdx
  40230e:	48 8b 45 b8          	mov    -0x48(%rbp),%rax
  402312:	48 8b 48 08          	mov    0x8(%rax),%rcx
  402316:	48 8b 45 b8          	mov    -0x48(%rbp),%rax
  40231a:	48 8b 00             	mov    (%rax),%rax
  40231d:	48 89 ce             	mov    %rcx,%rsi
  402320:	48 89 c7             	mov    %rax,%rdi
  402323:	e8 ba fd ff ff       	callq  4020e2 <_ZSt8_DestroyIPmmEvT_S1_RSaIT0_E>
  402328:	48 8b 45 b8          	mov    -0x48(%rbp),%rax
  40232c:	48 8b 40 10          	mov    0x10(%rax),%rax
  402330:	48 89 c2             	mov    %rax,%rdx
  402333:	48 8b 45 b8          	mov    -0x48(%rbp),%rax
  402337:	48 8b 00             	mov    (%rax),%rax
  40233a:	48 29 c2             	sub    %rax,%rdx
  40233d:	48 89 d0             	mov    %rdx,%rax
  402340:	48 c1 f8 03          	sar    $0x3,%rax
  402344:	48 89 c2             	mov    %rax,%rdx
  402347:	48 8b 45 b8          	mov    -0x48(%rbp),%rax
  40234b:	48 8b 08             	mov    (%rax),%rcx
  40234e:	48 8b 45 b8          	mov    -0x48(%rbp),%rax
  402352:	48 89 ce             	mov    %rcx,%rsi
  402355:	48 89 c7             	mov    %rax,%rdi
  402358:	e8 a5 05 00 00       	callq  402902 <_ZNSt12_Vector_baseImSaImEE13_M_deallocateEPmm>
  40235d:	48 8b 45 b8          	mov    -0x48(%rbp),%rax
  402361:	48 8b 55 e8          	mov    -0x18(%rbp),%rdx
  402365:	48 89 10             	mov    %rdx,(%rax)
  402368:	48 8b 45 b8          	mov    -0x48(%rbp),%rax
  40236c:	48 8b 55 c8          	mov    -0x38(%rbp),%rdx
  402370:	48 89 50 08          	mov    %rdx,0x8(%rax)
  402374:	48 8b 45 d8          	mov    -0x28(%rbp),%rax
  402378:	48 8d 14 c5 00 00 00 	lea    0x0(,%rax,8),%rdx
  40237f:	00 
  402380:	48 8b 45 e8          	mov    -0x18(%rbp),%rax
  402384:	48 01 c2             	add    %rax,%rdx
  402387:	48 8b 45 b8          	mov    -0x48(%rbp),%rax
  40238b:	48 89 50 10          	mov    %rdx,0x10(%rax)
  40238f:	e9 84 00 00 00       	jmpq   402418 <_ZNSt6vectorImSaImEE13_M_insert_auxEN9__gnu_cxx17__normal_iteratorIPmS1_EERKm+0x2e0>
  402394:	48 89 c3             	mov    %rax,%rbx
  402397:	e8 84 ea ff ff       	callq  400e20 <__cxa_end_catch@plt>
  40239c:	48 89 d8             	mov    %rbx,%rax
  40239f:	48 89 c7             	mov    %rax,%rdi
  4023a2:	e8 d9 ea ff ff       	callq  400e80 <_Unwind_Resume@plt>
  4023a7:	48 89 c7             	mov    %rax,%rdi
  4023aa:	e8 a1 ea ff ff       	callq  400e50 <__cxa_begin_catch@plt>
  4023af:	48 83 7d c8 00       	cmpq   $0x0,-0x38(%rbp)
  4023b4:	75 24                	jne    4023da <_ZNSt6vectorImSaImEE13_M_insert_auxEN9__gnu_cxx17__normal_iteratorIPmS1_EERKm+0x2a2>
  4023b6:	48 8b 45 e0          	mov    -0x20(%rbp),%rax
  4023ba:	48 8d 14 c5 00 00 00 	lea    0x0(,%rax,8),%rdx
  4023c1:	00 
  4023c2:	48 8b 45 e8          	mov    -0x18(%rbp),%rax
  4023c6:	48 01 c2             	add    %rax,%rdx
  4023c9:	48 8b 45 b8          	mov    -0x48(%rbp),%rax
  4023cd:	48 89 d6             	mov    %rdx,%rsi
  4023d0:	48 89 c7             	mov    %rax,%rdi
  4023d3:	e8 bc 07 00 00       	callq  402b94 <_ZN9__gnu_cxx14__alloc_traitsISaImEE7destroyERS1_Pm>
  4023d8:	eb 22                	jmp    4023fc <_ZNSt6vectorImSaImEE13_M_insert_auxEN9__gnu_cxx17__normal_iteratorIPmS1_EERKm+0x2c4>
  4023da:	48 8b 45 b8          	mov    -0x48(%rbp),%rax
  4023de:	48 89 c7             	mov    %rax,%rdi
  4023e1:	e8 ee fc ff ff       	callq  4020d4 <_ZNSt12_Vector_baseImSaImEE19_M_get_Tp_allocatorEv>
  4023e6:	48 89 c2             	mov    %rax,%rdx
  4023e9:	48 8b 4d c8          	mov    -0x38(%rbp),%rcx
  4023ed:	48 8b 45 e8          	mov    -0x18(%rbp),%rax
  4023f1:	48 89 ce             	mov    %rcx,%rsi
  4023f4:	48 89 c7             	mov    %rax,%rdi
  4023f7:	e8 e6 fc ff ff       	callq  4020e2 <_ZSt8_DestroyIPmmEvT_S1_RSaIT0_E>
  4023fc:	48 8b 45 b8          	mov    -0x48(%rbp),%rax
  402400:	48 8b 55 d8          	mov    -0x28(%rbp),%rdx
  402404:	48 8b 4d e8          	mov    -0x18(%rbp),%rcx
  402408:	48 89 ce             	mov    %rcx,%rsi
  40240b:	48 89 c7             	mov    %rax,%rdi
  40240e:	e8 ef 04 00 00       	callq  402902 <_ZNSt12_Vector_baseImSaImEE13_M_deallocateEPmm>
  402413:	e8 08 e9 ff ff       	callq  400d20 <__cxa_rethrow@plt>
  402418:	48 83 c4 50          	add    $0x50,%rsp
  40241c:	5b                   	pop    %rbx
  40241d:	41 5c                	pop    %r12
  40241f:	5d                   	pop    %rbp
  402420:	c3                   	retq   
  402421:	90                   	nop

0000000000402422 <_ZNSt6vectorImSaImEE3endEv>:
  402422:	55                   	push   %rbp
  402423:	48 89 e5             	mov    %rsp,%rbp
  402426:	48 83 ec 20          	sub    $0x20,%rsp
  40242a:	48 89 7d e8          	mov    %rdi,-0x18(%rbp)
  40242e:	48 8b 45 e8          	mov    -0x18(%rbp),%rax
  402432:	48 8d 50 08          	lea    0x8(%rax),%rdx
  402436:	48 8d 45 f0          	lea    -0x10(%rbp),%rax
  40243a:	48 89 d6             	mov    %rdx,%rsi
  40243d:	48 89 c7             	mov    %rax,%rdi
  402440:	e8 75 07 00 00       	callq  402bba <_ZN9__gnu_cxx17__normal_iteratorIPmSt6vectorImSaImEEEC1ERKS1_>
  402445:	48 8b 45 f0          	mov    -0x10(%rbp),%rax
  402449:	c9                   	leaveq 
  40244a:	c3                   	retq   

000000000040244b <_ZN9__gnu_cxx14__alloc_traitsISaISt6vectorImSaImEEEE9constructIS3_EEvRS4_PS3_RKT_>:
  40244b:	55                   	push   %rbp
  40244c:	48 89 e5             	mov    %rsp,%rbp
  40244f:	48 83 ec 20          	sub    $0x20,%rsp
  402453:	48 89 7d f8          	mov    %rdi,-0x8(%rbp)
  402457:	48 89 75 f0          	mov    %rsi,-0x10(%rbp)
  40245b:	48 89 55 e8          	mov    %rdx,-0x18(%rbp)
  40245f:	48 8b 55 e8          	mov    -0x18(%rbp),%rdx
  402463:	48 8b 4d f0          	mov    -0x10(%rbp),%rcx
  402467:	48 8b 45 f8          	mov    -0x8(%rbp),%rax
  40246b:	48 89 ce             	mov    %rcx,%rsi
  40246e:	48 89 c7             	mov    %rax,%rdi
  402471:	e8 60 07 00 00       	callq  402bd6 <_ZN9__gnu_cxx13new_allocatorISt6vectorImSaImEEE9constructEPS3_RKS3_>
  402476:	c9                   	leaveq 
  402477:	c3                   	retq   

0000000000402478 <_ZNSt6vectorIS_ImSaImEESaIS1_EE13_M_insert_auxEN9__gnu_cxx17__normal_iteratorIPS1_S3_EERKS1_>:
  402478:	55                   	push   %rbp
  402479:	48 89 e5             	mov    %rsp,%rbp
  40247c:	41 54                	push   %r12
  40247e:	53                   	push   %rbx
  40247f:	48 83 ec 60          	sub    $0x60,%rsp
  402483:	48 89 7d a8          	mov    %rdi,-0x58(%rbp)
  402487:	48 89 75 a0          	mov    %rsi,-0x60(%rbp)
  40248b:	48 89 55 98          	mov    %rdx,-0x68(%rbp)
  40248f:	48 8b 45 a8          	mov    -0x58(%rbp),%rax
  402493:	48 8b 50 08          	mov    0x8(%rax),%rdx
  402497:	48 8b 45 a8          	mov    -0x58(%rbp),%rax
  40249b:	48 8b 40 10          	mov    0x10(%rax),%rax
  40249f:	48 39 c2             	cmp    %rax,%rdx
  4024a2:	0f 84 ab 00 00 00    	je     402553 <_ZNSt6vectorIS_ImSaImEESaIS1_EE13_M_insert_auxEN9__gnu_cxx17__normal_iteratorIPS1_S3_EERKS1_+0xdb>
  4024a8:	48 8b 45 a8          	mov    -0x58(%rbp),%rax
  4024ac:	48 8b 40 08          	mov    0x8(%rax),%rax
  4024b0:	48 8d 50 e8          	lea    -0x18(%rax),%rdx
  4024b4:	48 8b 45 a8          	mov    -0x58(%rbp),%rax
  4024b8:	48 8b 48 08          	mov    0x8(%rax),%rcx
  4024bc:	48 8b 45 a8          	mov    -0x58(%rbp),%rax
  4024c0:	48 89 ce             	mov    %rcx,%rsi
  4024c3:	48 89 c7             	mov    %rax,%rdi
  4024c6:	e8 80 ff ff ff       	callq  40244b <_ZN9__gnu_cxx14__alloc_traitsISaISt6vectorImSaImEEEE9constructIS3_EEvRS4_PS3_RKT_>
  4024cb:	48 8b 45 a8          	mov    -0x58(%rbp),%rax
  4024cf:	48 8b 40 08          	mov    0x8(%rax),%rax
  4024d3:	48 8d 50 18          	lea    0x18(%rax),%rdx
  4024d7:	48 8b 45 a8          	mov    -0x58(%rbp),%rax
  4024db:	48 89 50 08          	mov    %rdx,0x8(%rax)
  4024df:	48 8b 55 98          	mov    -0x68(%rbp),%rdx
  4024e3:	48 8d 45 d0          	lea    -0x30(%rbp),%rax
  4024e7:	48 89 d6             	mov    %rdx,%rsi
  4024ea:	48 89 c7             	mov    %rax,%rdi
  4024ed:	e8 4e 07 00 00       	callq  402c40 <_ZNSt6vectorImSaImEEC1ERKS1_>
  4024f2:	48 8b 45 a8          	mov    -0x58(%rbp),%rax
  4024f6:	48 8b 40 08          	mov    0x8(%rax),%rax
  4024fa:	4c 8d 60 e8          	lea    -0x18(%rax),%r12
  4024fe:	48 8b 45 a8          	mov    -0x58(%rbp),%rax
  402502:	48 8b 40 08          	mov    0x8(%rax),%rax
  402506:	48 8d 58 d0          	lea    -0x30(%rax),%rbx
  40250a:	48 8d 45 a0          	lea    -0x60(%rbp),%rax
  40250e:	48 89 c7             	mov    %rax,%rdi
  402511:	e8 e8 07 00 00       	callq  402cfe <_ZNK9__gnu_cxx17__normal_iteratorIPSt6vectorImSaImEES1_IS3_SaIS3_EEE4baseEv>
  402516:	48 8b 00             	mov    (%rax),%rax
  402519:	4c 89 e2             	mov    %r12,%rdx
  40251c:	48 89 de             	mov    %rbx,%rsi
  40251f:	48 89 c7             	mov    %rax,%rdi
  402522:	e8 e5 07 00 00       	callq  402d0c <_ZSt13copy_backwardIPSt6vectorImSaImEES3_ET0_T_S5_S4_>
  402527:	48 8d 45 a0          	lea    -0x60(%rbp),%rax
  40252b:	48 89 c7             	mov    %rax,%rdi
  40252e:	e8 1f 08 00 00       	callq  402d52 <_ZNK9__gnu_cxx17__normal_iteratorIPSt6vectorImSaImEES1_IS3_SaIS3_EEEdeEv>
  402533:	48 8d 55 d0          	lea    -0x30(%rbp),%rdx
  402537:	48 89 d6             	mov    %rdx,%rsi
  40253a:	48 89 c7             	mov    %rax,%rdi
  40253d:	e8 22 08 00 00       	callq  402d64 <_ZNSt6vectorImSaImEEaSERKS1_>
  402542:	48 8d 45 d0          	lea    -0x30(%rbp),%rax
  402546:	48 89 c7             	mov    %rax,%rdi
  402549:	e8 fc f7 ff ff       	callq  401d4a <_ZNSt6vectorImSaImEED1Ev>
  40254e:	e9 64 02 00 00       	jmpq   4027b7 <_ZNSt6vectorIS_ImSaImEESaIS1_EE13_M_insert_auxEN9__gnu_cxx17__normal_iteratorIPS1_S3_EERKS1_+0x33f>
  402553:	48 8b 45 a8          	mov    -0x58(%rbp),%rax
  402557:	ba 28 41 40 00       	mov    $0x404128,%edx
  40255c:	be 01 00 00 00       	mov    $0x1,%esi
  402561:	48 89 c7             	mov    %rax,%rdi
  402564:	e8 35 0a 00 00       	callq  402f9e <_ZNKSt6vectorIS_ImSaImEESaIS1_EE12_M_check_lenEmPKc>
  402569:	48 89 45 b8          	mov    %rax,-0x48(%rbp)
  40256d:	48 8b 45 a8          	mov    -0x58(%rbp),%rax
  402571:	48 89 c7             	mov    %rax,%rdi
  402574:	e8 ef 0a 00 00       	callq  403068 <_ZNSt6vectorIS_ImSaImEESaIS1_EE5beginEv>
  402579:	48 89 45 d0          	mov    %rax,-0x30(%rbp)
  40257d:	48 8d 55 d0          	lea    -0x30(%rbp),%rdx
  402581:	48 8d 45 a0          	lea    -0x60(%rbp),%rax
  402585:	48 89 d6             	mov    %rdx,%rsi
  402588:	48 89 c7             	mov    %rax,%rdi
  40258b:	e8 fd 0a 00 00       	callq  40308d <_ZN9__gnu_cxxmiIPSt6vectorImSaImEES1_IS3_SaIS3_EEEENS_17__normal_iteratorIT_T0_E15difference_typeERKSA_SD_>
  402590:	48 89 45 c0          	mov    %rax,-0x40(%rbp)
  402594:	48 8b 45 a8          	mov    -0x58(%rbp),%rax
  402598:	48 8b 55 b8          	mov    -0x48(%rbp),%rdx
  40259c:	48 89 d6             	mov    %rdx,%rsi
  40259f:	48 89 c7             	mov    %rax,%rdi
  4025a2:	e8 3b 0b 00 00       	callq  4030e2 <_ZNSt12_Vector_baseISt6vectorImSaImEESaIS2_EE11_M_allocateEm>
  4025a7:	48 89 45 c8          	mov    %rax,-0x38(%rbp)
  4025ab:	48 8b 45 c8          	mov    -0x38(%rbp),%rax
  4025af:	48 89 45 b0          	mov    %rax,-0x50(%rbp)
  4025b3:	48 8b 55 c0          	mov    -0x40(%rbp),%rdx
  4025b7:	48 89 d0             	mov    %rdx,%rax
  4025ba:	48 01 c0             	add    %rax,%rax
  4025bd:	48 01 d0             	add    %rdx,%rax
  4025c0:	48 c1 e0 03          	shl    $0x3,%rax
  4025c4:	48 89 c2             	mov    %rax,%rdx
  4025c7:	48 8b 45 c8          	mov    -0x38(%rbp),%rax
  4025cb:	48 8d 0c 02          	lea    (%rdx,%rax,1),%rcx
  4025cf:	48 8b 45 a8          	mov    -0x58(%rbp),%rax
  4025d3:	48 8b 55 98          	mov    -0x68(%rbp),%rdx
  4025d7:	48 89 ce             	mov    %rcx,%rsi
  4025da:	48 89 c7             	mov    %rax,%rdi
  4025dd:	e8 69 fe ff ff       	callq  40244b <_ZN9__gnu_cxx14__alloc_traitsISaISt6vectorImSaImEEEE9constructIS3_EEvRS4_PS3_RKT_>
  4025e2:	48 c7 45 b0 00 00 00 	movq   $0x0,-0x50(%rbp)
  4025e9:	00 
  4025ea:	48 8b 45 a8          	mov    -0x58(%rbp),%rax
  4025ee:	48 89 c7             	mov    %rax,%rdi
  4025f1:	e8 00 fa ff ff       	callq  401ff6 <_ZNSt12_Vector_baseISt6vectorImSaImEESaIS2_EE19_M_get_Tp_allocatorEv>
  4025f6:	48 89 c3             	mov    %rax,%rbx
  4025f9:	48 8d 45 a0          	lea    -0x60(%rbp),%rax
  4025fd:	48 89 c7             	mov    %rax,%rdi
  402600:	e8 f9 06 00 00       	callq  402cfe <_ZNK9__gnu_cxx17__normal_iteratorIPSt6vectorImSaImEES1_IS3_SaIS3_EEE4baseEv>
  402605:	48 8b 30             	mov    (%rax),%rsi
  402608:	48 8b 45 a8          	mov    -0x58(%rbp),%rax
  40260c:	48 8b 00             	mov    (%rax),%rax
  40260f:	48 8b 55 c8          	mov    -0x38(%rbp),%rdx
  402613:	48 89 d9             	mov    %rbx,%rcx
  402616:	48 89 c7             	mov    %rax,%rdi
  402619:	e8 fc 0a 00 00       	callq  40311a <_ZSt34__uninitialized_move_if_noexcept_aIPSt6vectorImSaImEES3_SaIS2_EET0_T_S6_S5_RT1_>
  40261e:	48 89 45 b0          	mov    %rax,-0x50(%rbp)
  402622:	48 83 45 b0 18       	addq   $0x18,-0x50(%rbp)
  402627:	48 8b 45 a8          	mov    -0x58(%rbp),%rax
  40262b:	48 89 c7             	mov    %rax,%rdi
  40262e:	e8 c3 f9 ff ff       	callq  401ff6 <_ZNSt12_Vector_baseISt6vectorImSaImEESaIS2_EE19_M_get_Tp_allocatorEv>
  402633:	49 89 c4             	mov    %rax,%r12
  402636:	48 8b 45 a8          	mov    -0x58(%rbp),%rax
  40263a:	48 8b 58 08          	mov    0x8(%rax),%rbx
  40263e:	48 8d 45 a0          	lea    -0x60(%rbp),%rax
  402642:	48 89 c7             	mov    %rax,%rdi
  402645:	e8 b4 06 00 00       	callq  402cfe <_ZNK9__gnu_cxx17__normal_iteratorIPSt6vectorImSaImEES1_IS3_SaIS3_EEE4baseEv>
  40264a:	48 8b 00             	mov    (%rax),%rax
  40264d:	48 8b 55 b0          	mov    -0x50(%rbp),%rdx
  402651:	4c 89 e1             	mov    %r12,%rcx
  402654:	48 89 de             	mov    %rbx,%rsi
  402657:	48 89 c7             	mov    %rax,%rdi
  40265a:	e8 bb 0a 00 00       	callq  40311a <_ZSt34__uninitialized_move_if_noexcept_aIPSt6vectorImSaImEES3_SaIS2_EET0_T_S6_S5_RT1_>
  40265f:	48 89 45 b0          	mov    %rax,-0x50(%rbp)
  402663:	48 8b 45 a8          	mov    -0x58(%rbp),%rax
  402667:	48 89 c7             	mov    %rax,%rdi
  40266a:	e8 87 f9 ff ff       	callq  401ff6 <_ZNSt12_Vector_baseISt6vectorImSaImEESaIS2_EE19_M_get_Tp_allocatorEv>
  40266f:	48 89 c2             	mov    %rax,%rdx
  402672:	48 8b 45 a8          	mov    -0x58(%rbp),%rax
  402676:	48 8b 48 08          	mov    0x8(%rax),%rcx
  40267a:	48 8b 45 a8          	mov    -0x58(%rbp),%rax
  40267e:	48 8b 00             	mov    (%rax),%rax
  402681:	48 89 ce             	mov    %rcx,%rsi
  402684:	48 89 c7             	mov    %rax,%rdi
  402687:	e8 78 f9 ff ff       	callq  402004 <_ZSt8_DestroyIPSt6vectorImSaImEES2_EvT_S4_RSaIT0_E>
  40268c:	48 8b 45 a8          	mov    -0x58(%rbp),%rax
  402690:	48 8b 40 10          	mov    0x10(%rax),%rax
  402694:	48 89 c2             	mov    %rax,%rdx
  402697:	48 8b 45 a8          	mov    -0x58(%rbp),%rax
  40269b:	48 8b 00             	mov    (%rax),%rax
  40269e:	48 29 c2             	sub    %rax,%rdx
  4026a1:	48 89 d0             	mov    %rdx,%rax
  4026a4:	48 c1 f8 03          	sar    $0x3,%rax
  4026a8:	48 89 c2             	mov    %rax,%rdx
  4026ab:	48 b8 ab aa aa aa aa 	movabs $0xaaaaaaaaaaaaaaab,%rax
  4026b2:	aa aa aa 
  4026b5:	48 0f af c2          	imul   %rdx,%rax
  4026b9:	48 89 c2             	mov    %rax,%rdx
  4026bc:	48 8b 45 a8          	mov    -0x58(%rbp),%rax
  4026c0:	48 8b 08             	mov    (%rax),%rcx
  4026c3:	48 8b 45 a8          	mov    -0x58(%rbp),%rax
  4026c7:	48 89 ce             	mov    %rcx,%rsi
  4026ca:	48 89 c7             	mov    %rax,%rdi
  4026cd:	e8 7e 01 00 00       	callq  402850 <_ZNSt12_Vector_baseISt6vectorImSaImEESaIS2_EE13_M_deallocateEPS2_m>
  4026d2:	48 8b 45 a8          	mov    -0x58(%rbp),%rax
  4026d6:	48 8b 55 c8          	mov    -0x38(%rbp),%rdx
  4026da:	48 89 10             	mov    %rdx,(%rax)
  4026dd:	48 8b 45 a8          	mov    -0x58(%rbp),%rax
  4026e1:	48 8b 55 b0          	mov    -0x50(%rbp),%rdx
  4026e5:	48 89 50 08          	mov    %rdx,0x8(%rax)
  4026e9:	48 8b 55 b8          	mov    -0x48(%rbp),%rdx
  4026ed:	48 89 d0             	mov    %rdx,%rax
  4026f0:	48 01 c0             	add    %rax,%rax
  4026f3:	48 01 d0             	add    %rdx,%rax
  4026f6:	48 c1 e0 03          	shl    $0x3,%rax
  4026fa:	48 89 c2             	mov    %rax,%rdx
  4026fd:	48 8b 45 c8          	mov    -0x38(%rbp),%rax
  402701:	48 01 c2             	add    %rax,%rdx
  402704:	48 8b 45 a8          	mov    -0x58(%rbp),%rax
  402708:	48 89 50 10          	mov    %rdx,0x10(%rax)
  40270c:	e9 a6 00 00 00       	jmpq   4027b7 <_ZNSt6vectorIS_ImSaImEESaIS1_EE13_M_insert_auxEN9__gnu_cxx17__normal_iteratorIPS1_S3_EERKS1_+0x33f>
  402711:	48 89 c3             	mov    %rax,%rbx
  402714:	48 8d 45 d0          	lea    -0x30(%rbp),%rax
  402718:	48 89 c7             	mov    %rax,%rdi
  40271b:	e8 2a f6 ff ff       	callq  401d4a <_ZNSt6vectorImSaImEED1Ev>
  402720:	48 89 d8             	mov    %rbx,%rax
  402723:	48 89 c7             	mov    %rax,%rdi
  402726:	e8 55 e7 ff ff       	callq  400e80 <_Unwind_Resume@plt>
  40272b:	48 89 c3             	mov    %rax,%rbx
  40272e:	e8 ed e6 ff ff       	callq  400e20 <__cxa_end_catch@plt>
  402733:	48 89 d8             	mov    %rbx,%rax
  402736:	48 89 c7             	mov    %rax,%rdi
  402739:	e8 42 e7 ff ff       	callq  400e80 <_Unwind_Resume@plt>
  40273e:	48 89 c7             	mov    %rax,%rdi
  402741:	e8 0a e7 ff ff       	callq  400e50 <__cxa_begin_catch@plt>
  402746:	48 83 7d b0 00       	cmpq   $0x0,-0x50(%rbp)
  40274b:	75 2c                	jne    402779 <_ZNSt6vectorIS_ImSaImEESaIS1_EE13_M_insert_auxEN9__gnu_cxx17__normal_iteratorIPS1_S3_EERKS1_+0x301>
  40274d:	48 8b 55 c0          	mov    -0x40(%rbp),%rdx
  402751:	48 89 d0             	mov    %rdx,%rax
  402754:	48 01 c0             	add    %rax,%rax
  402757:	48 01 d0             	add    %rdx,%rax
  40275a:	48 c1 e0 03          	shl    $0x3,%rax
  40275e:	48 89 c2             	mov    %rax,%rdx
  402761:	48 8b 45 c8          	mov    -0x38(%rbp),%rax
  402765:	48 01 c2             	add    %rax,%rdx
  402768:	48 8b 45 a8          	mov    -0x58(%rbp),%rax
  40276c:	48 89 d6             	mov    %rdx,%rsi
  40276f:	48 89 c7             	mov    %rax,%rdi
  402772:	e8 d5 09 00 00       	callq  40314c <_ZN9__gnu_cxx14__alloc_traitsISaISt6vectorImSaImEEEE7destroyERS4_PS3_>
  402777:	eb 22                	jmp    40279b <_ZNSt6vectorIS_ImSaImEESaIS1_EE13_M_insert_auxEN9__gnu_cxx17__normal_iteratorIPS1_S3_EERKS1_+0x323>
  402779:	48 8b 45 a8          	mov    -0x58(%rbp),%rax
  40277d:	48 89 c7             	mov    %rax,%rdi
  402780:	e8 71 f8 ff ff       	callq  401ff6 <_ZNSt12_Vector_baseISt6vectorImSaImEESaIS2_EE19_M_get_Tp_allocatorEv>
  402785:	48 89 c2             	mov    %rax,%rdx
  402788:	48 8b 4d b0          	mov    -0x50(%rbp),%rcx
  40278c:	48 8b 45 c8          	mov    -0x38(%rbp),%rax
  402790:	48 89 ce             	mov    %rcx,%rsi
  402793:	48 89 c7             	mov    %rax,%rdi
  402796:	e8 69 f8 ff ff       	callq  402004 <_ZSt8_DestroyIPSt6vectorImSaImEES2_EvT_S4_RSaIT0_E>
  40279b:	48 8b 45 a8          	mov    -0x58(%rbp),%rax
  40279f:	48 8b 55 b8          	mov    -0x48(%rbp),%rdx
  4027a3:	48 8b 4d c8          	mov    -0x38(%rbp),%rcx
  4027a7:	48 89 ce             	mov    %rcx,%rsi
  4027aa:	48 89 c7             	mov    %rax,%rdi
  4027ad:	e8 9e 00 00 00       	callq  402850 <_ZNSt12_Vector_baseISt6vectorImSaImEESaIS2_EE13_M_deallocateEPS2_m>
  4027b2:	e8 69 e5 ff ff       	callq  400d20 <__cxa_rethrow@plt>
  4027b7:	48 83 c4 60          	add    $0x60,%rsp
  4027bb:	5b                   	pop    %rbx
  4027bc:	41 5c                	pop    %r12
  4027be:	5d                   	pop    %rbp
  4027bf:	c3                   	retq   

00000000004027c0 <_ZNSt6vectorIS_ImSaImEESaIS1_EE3endEv>:
  4027c0:	55                   	push   %rbp
  4027c1:	48 89 e5             	mov    %rsp,%rbp
  4027c4:	48 83 ec 20          	sub    $0x20,%rsp
  4027c8:	48 89 7d e8          	mov    %rdi,-0x18(%rbp)
  4027cc:	48 8b 45 e8          	mov    -0x18(%rbp),%rax
  4027d0:	48 8d 50 08          	lea    0x8(%rax),%rdx
  4027d4:	48 8d 45 f0          	lea    -0x10(%rbp),%rax
  4027d8:	48 89 d6             	mov    %rdx,%rsi
  4027db:	48 89 c7             	mov    %rax,%rdi
  4027de:	e8 8f 09 00 00       	callq  403172 <_ZN9__gnu_cxx17__normal_iteratorIPSt6vectorImSaImEES1_IS3_SaIS3_EEEC1ERKS4_>
  4027e3:	48 8b 45 f0          	mov    -0x10(%rbp),%rax
  4027e7:	c9                   	leaveq 
  4027e8:	c3                   	retq   

00000000004027e9 <_ZNSt10_Iter_baseIPmLb0EE7_S_baseES0_>:
  4027e9:	55                   	push   %rbp
  4027ea:	48 89 e5             	mov    %rsp,%rbp
  4027ed:	48 89 7d f8          	mov    %rdi,-0x8(%rbp)
  4027f1:	48 8b 45 f8          	mov    -0x8(%rbp),%rax
  4027f5:	5d                   	pop    %rbp
  4027f6:	c3                   	retq   
  4027f7:	90                   	nop

00000000004027f8 <_ZNSt12_Vector_baseISt6vectorImSaImEESaIS2_EE12_Vector_implC1Ev>:
  4027f8:	55                   	push   %rbp
  4027f9:	48 89 e5             	mov    %rsp,%rbp
  4027fc:	48 83 ec 10          	sub    $0x10,%rsp
  402800:	48 89 7d f8          	mov    %rdi,-0x8(%rbp)
  402804:	48 8b 45 f8          	mov    -0x8(%rbp),%rax
  402808:	48 89 c7             	mov    %rax,%rdi
  40280b:	e8 7e 09 00 00       	callq  40318e <_ZNSaISt6vectorImSaImEEEC1Ev>
  402810:	48 8b 45 f8          	mov    -0x8(%rbp),%rax
  402814:	48 c7 00 00 00 00 00 	movq   $0x0,(%rax)
  40281b:	48 8b 45 f8          	mov    -0x8(%rbp),%rax
  40281f:	48 c7 40 08 00 00 00 	movq   $0x0,0x8(%rax)
  402826:	00 
  402827:	48 8b 45 f8          	mov    -0x8(%rbp),%rax
  40282b:	48 c7 40 10 00 00 00 	movq   $0x0,0x10(%rax)
  402832:	00 
  402833:	c9                   	leaveq 
  402834:	c3                   	retq   
  402835:	90                   	nop

0000000000402836 <_ZNSaISt6vectorImSaImEEED1Ev>:
  402836:	55                   	push   %rbp
  402837:	48 89 e5             	mov    %rsp,%rbp
  40283a:	48 83 ec 10          	sub    $0x10,%rsp
  40283e:	48 89 7d f8          	mov    %rdi,-0x8(%rbp)
  402842:	48 8b 45 f8          	mov    -0x8(%rbp),%rax
  402846:	48 89 c7             	mov    %rax,%rdi
  402849:	e8 5a 09 00 00       	callq  4031a8 <_ZN9__gnu_cxx13new_allocatorISt6vectorImSaImEEED1Ev>
  40284e:	c9                   	leaveq 
  40284f:	c3                   	retq   

0000000000402850 <_ZNSt12_Vector_baseISt6vectorImSaImEESaIS2_EE13_M_deallocateEPS2_m>:
  402850:	55                   	push   %rbp
  402851:	48 89 e5             	mov    %rsp,%rbp
  402854:	48 83 ec 20          	sub    $0x20,%rsp
  402858:	48 89 7d f8          	mov    %rdi,-0x8(%rbp)
  40285c:	48 89 75 f0          	mov    %rsi,-0x10(%rbp)
  402860:	48 89 55 e8          	mov    %rdx,-0x18(%rbp)
  402864:	48 83 7d f0 00       	cmpq   $0x0,-0x10(%rbp)
  402869:	74 17                	je     402882 <_ZNSt12_Vector_baseISt6vectorImSaImEESaIS2_EE13_M_deallocateEPS2_m+0x32>
  40286b:	48 8b 45 f8          	mov    -0x8(%rbp),%rax
  40286f:	48 8b 55 e8          	mov    -0x18(%rbp),%rdx
  402873:	48 8b 4d f0          	mov    -0x10(%rbp),%rcx
  402877:	48 89 ce             	mov    %rcx,%rsi
  40287a:	48 89 c7             	mov    %rax,%rdi
  40287d:	e8 30 09 00 00       	callq  4031b2 <_ZN9__gnu_cxx13new_allocatorISt6vectorImSaImEEE10deallocateEPS3_m>
  402882:	c9                   	leaveq 
  402883:	c3                   	retq   

0000000000402884 <_ZSt8_DestroyIPSt6vectorImSaImEEEvT_S4_>:
  402884:	55                   	push   %rbp
  402885:	48 89 e5             	mov    %rsp,%rbp
  402888:	48 83 ec 10          	sub    $0x10,%rsp
  40288c:	48 89 7d f8          	mov    %rdi,-0x8(%rbp)
  402890:	48 89 75 f0          	mov    %rsi,-0x10(%rbp)
  402894:	48 8b 55 f0          	mov    -0x10(%rbp),%rdx
  402898:	48 8b 45 f8          	mov    -0x8(%rbp),%rax
  40289c:	48 89 d6             	mov    %rdx,%rsi
  40289f:	48 89 c7             	mov    %rax,%rdi
  4028a2:	e8 2d 09 00 00       	callq  4031d4 <_ZNSt12_Destroy_auxILb0EE9__destroyIPSt6vectorImSaImEEEEvT_S6_>
  4028a7:	c9                   	leaveq 
  4028a8:	c3                   	retq   
  4028a9:	90                   	nop

00000000004028aa <_ZNSt12_Vector_baseImSaImEE12_Vector_implC1Ev>:
  4028aa:	55                   	push   %rbp
  4028ab:	48 89 e5             	mov    %rsp,%rbp
  4028ae:	48 83 ec 10          	sub    $0x10,%rsp
  4028b2:	48 89 7d f8          	mov    %rdi,-0x8(%rbp)
  4028b6:	48 8b 45 f8          	mov    -0x8(%rbp),%rax
  4028ba:	48 89 c7             	mov    %rax,%rdi
  4028bd:	e8 4a 09 00 00       	callq  40320c <_ZNSaImEC1Ev>
  4028c2:	48 8b 45 f8          	mov    -0x8(%rbp),%rax
  4028c6:	48 c7 00 00 00 00 00 	movq   $0x0,(%rax)
  4028cd:	48 8b 45 f8          	mov    -0x8(%rbp),%rax
  4028d1:	48 c7 40 08 00 00 00 	movq   $0x0,0x8(%rax)
  4028d8:	00 
  4028d9:	48 8b 45 f8          	mov    -0x8(%rbp),%rax
  4028dd:	48 c7 40 10 00 00 00 	movq   $0x0,0x10(%rax)
  4028e4:	00 
  4028e5:	c9                   	leaveq 
  4028e6:	c3                   	retq   
  4028e7:	90                   	nop

00000000004028e8 <_ZNSaImED1Ev>:
  4028e8:	55                   	push   %rbp
  4028e9:	48 89 e5             	mov    %rsp,%rbp
  4028ec:	48 83 ec 10          	sub    $0x10,%rsp
  4028f0:	48 89 7d f8          	mov    %rdi,-0x8(%rbp)
  4028f4:	48 8b 45 f8          	mov    -0x8(%rbp),%rax
  4028f8:	48 89 c7             	mov    %rax,%rdi
  4028fb:	e8 26 09 00 00       	callq  403226 <_ZN9__gnu_cxx13new_allocatorImED1Ev>
  402900:	c9                   	leaveq 
  402901:	c3                   	retq   

0000000000402902 <_ZNSt12_Vector_baseImSaImEE13_M_deallocateEPmm>:
  402902:	55                   	push   %rbp
  402903:	48 89 e5             	mov    %rsp,%rbp
  402906:	48 83 ec 20          	sub    $0x20,%rsp
  40290a:	48 89 7d f8          	mov    %rdi,-0x8(%rbp)
  40290e:	48 89 75 f0          	mov    %rsi,-0x10(%rbp)
  402912:	48 89 55 e8          	mov    %rdx,-0x18(%rbp)
  402916:	48 83 7d f0 00       	cmpq   $0x0,-0x10(%rbp)
  40291b:	74 17                	je     402934 <_ZNSt12_Vector_baseImSaImEE13_M_deallocateEPmm+0x32>
  40291d:	48 8b 45 f8          	mov    -0x8(%rbp),%rax
  402921:	48 8b 55 e8          	mov    -0x18(%rbp),%rdx
  402925:	48 8b 4d f0          	mov    -0x10(%rbp),%rcx
  402929:	48 89 ce             	mov    %rcx,%rsi
  40292c:	48 89 c7             	mov    %rax,%rdi
  40292f:	e8 fc 08 00 00       	callq  403230 <_ZN9__gnu_cxx13new_allocatorImE10deallocateEPmm>
  402934:	c9                   	leaveq 
  402935:	c3                   	retq   

0000000000402936 <_ZSt8_DestroyIPmEvT_S1_>:
  402936:	55                   	push   %rbp
  402937:	48 89 e5             	mov    %rsp,%rbp
  40293a:	48 83 ec 10          	sub    $0x10,%rsp
  40293e:	48 89 7d f8          	mov    %rdi,-0x8(%rbp)
  402942:	48 89 75 f0          	mov    %rsi,-0x10(%rbp)
  402946:	48 8b 55 f0          	mov    -0x10(%rbp),%rdx
  40294a:	48 8b 45 f8          	mov    -0x8(%rbp),%rax
  40294e:	48 89 d6             	mov    %rdx,%rsi
  402951:	48 89 c7             	mov    %rax,%rdi
  402954:	e8 f9 08 00 00       	callq  403252 <_ZNSt12_Destroy_auxILb1EE9__destroyIPmEEvT_S3_>
  402959:	c9                   	leaveq 
  40295a:	c3                   	retq   
  40295b:	90                   	nop

000000000040295c <_ZN9__gnu_cxx13new_allocatorImE9constructEPmRKm>:
  40295c:	55                   	push   %rbp
  40295d:	48 89 e5             	mov    %rsp,%rbp
  402960:	48 83 ec 20          	sub    $0x20,%rsp
  402964:	48 89 7d f8          	mov    %rdi,-0x8(%rbp)
  402968:	48 89 75 f0          	mov    %rsi,-0x10(%rbp)
  40296c:	48 89 55 e8          	mov    %rdx,-0x18(%rbp)
  402970:	48 8b 45 f0          	mov    -0x10(%rbp),%rax
  402974:	48 89 c6             	mov    %rax,%rsi
  402977:	bf 08 00 00 00       	mov    $0x8,%edi
  40297c:	e8 20 ef ff ff       	callq  4018a1 <_ZnwmPv>
  402981:	48 85 c0             	test   %rax,%rax
  402984:	74 0a                	je     402990 <_ZN9__gnu_cxx13new_allocatorImE9constructEPmRKm+0x34>
  402986:	48 8b 55 e8          	mov    -0x18(%rbp),%rdx
  40298a:	48 8b 12             	mov    (%rdx),%rdx
  40298d:	48 89 10             	mov    %rdx,(%rax)
  402990:	c9                   	leaveq 
  402991:	c3                   	retq   

0000000000402992 <_ZNK9__gnu_cxx17__normal_iteratorIPmSt6vectorImSaImEEE4baseEv>:
  402992:	55                   	push   %rbp
  402993:	48 89 e5             	mov    %rsp,%rbp
  402996:	48 89 7d f8          	mov    %rdi,-0x8(%rbp)
  40299a:	48 8b 45 f8          	mov    -0x8(%rbp),%rax
  40299e:	5d                   	pop    %rbp
  40299f:	c3                   	retq   

00000000004029a0 <_ZSt13copy_backwardIPmS0_ET0_T_S2_S1_>:
  4029a0:	55                   	push   %rbp
  4029a1:	48 89 e5             	mov    %rsp,%rbp
  4029a4:	53                   	push   %rbx
  4029a5:	48 83 ec 28          	sub    $0x28,%rsp
  4029a9:	48 89 7d e8          	mov    %rdi,-0x18(%rbp)
  4029ad:	48 89 75 e0          	mov    %rsi,-0x20(%rbp)
  4029b1:	48 89 55 d8          	mov    %rdx,-0x28(%rbp)
  4029b5:	48 8b 45 e0          	mov    -0x20(%rbp),%rax
  4029b9:	48 89 c7             	mov    %rax,%rdi
  4029bc:	e8 9f 08 00 00       	callq  403260 <_ZSt12__miter_baseIPmENSt11_Miter_baseIT_E13iterator_typeES2_>
  4029c1:	48 89 c3             	mov    %rax,%rbx
  4029c4:	48 8b 45 e8          	mov    -0x18(%rbp),%rax
  4029c8:	48 89 c7             	mov    %rax,%rdi
  4029cb:	e8 90 08 00 00       	callq  403260 <_ZSt12__miter_baseIPmENSt11_Miter_baseIT_E13iterator_typeES2_>
  4029d0:	48 8b 55 d8          	mov    -0x28(%rbp),%rdx
  4029d4:	48 89 de             	mov    %rbx,%rsi
  4029d7:	48 89 c7             	mov    %rax,%rdi
  4029da:	e8 9b 08 00 00       	callq  40327a <_ZSt23__copy_move_backward_a2ILb0EPmS0_ET1_T0_S2_S1_>
  4029df:	48 83 c4 28          	add    $0x28,%rsp
  4029e3:	5b                   	pop    %rbx
  4029e4:	5d                   	pop    %rbp
  4029e5:	c3                   	retq   

00000000004029e6 <_ZNK9__gnu_cxx17__normal_iteratorIPmSt6vectorImSaImEEEdeEv>:
  4029e6:	55                   	push   %rbp
  4029e7:	48 89 e5             	mov    %rsp,%rbp
  4029ea:	48 89 7d f8          	mov    %rdi,-0x8(%rbp)
  4029ee:	48 8b 45 f8          	mov    -0x8(%rbp),%rax
  4029f2:	48 8b 00             	mov    (%rax),%rax
  4029f5:	5d                   	pop    %rbp
  4029f6:	c3                   	retq   
  4029f7:	90                   	nop

00000000004029f8 <_ZNKSt6vectorImSaImEE12_M_check_lenEmPKc>:
  4029f8:	55                   	push   %rbp
  4029f9:	48 89 e5             	mov    %rsp,%rbp
  4029fc:	53                   	push   %rbx
  4029fd:	48 83 ec 38          	sub    $0x38,%rsp
  402a01:	48 89 7d d8          	mov    %rdi,-0x28(%rbp)
  402a05:	48 89 75 d0          	mov    %rsi,-0x30(%rbp)
  402a09:	48 89 55 c8          	mov    %rdx,-0x38(%rbp)
  402a0d:	48 8b 45 d8          	mov    -0x28(%rbp),%rax
  402a11:	48 89 c7             	mov    %rax,%rdi
  402a14:	e8 df 08 00 00       	callq  4032f8 <_ZNKSt6vectorImSaImEE8max_sizeEv>
  402a19:	48 89 c3             	mov    %rax,%rbx
  402a1c:	48 8b 45 d8          	mov    -0x28(%rbp),%rax
  402a20:	48 89 c7             	mov    %rax,%rdi
  402a23:	e8 aa 08 00 00       	callq  4032d2 <_ZNKSt6vectorImSaImEE4sizeEv>
  402a28:	48 29 c3             	sub    %rax,%rbx
  402a2b:	48 89 da             	mov    %rbx,%rdx
  402a2e:	48 8b 45 d0          	mov    -0x30(%rbp),%rax
  402a32:	48 39 c2             	cmp    %rax,%rdx
  402a35:	0f 92 c0             	setb   %al
  402a38:	84 c0                	test   %al,%al
  402a3a:	74 0c                	je     402a48 <_ZNKSt6vectorImSaImEE12_M_check_lenEmPKc+0x50>
  402a3c:	48 8b 45 c8          	mov    -0x38(%rbp),%rax
  402a40:	48 89 c7             	mov    %rax,%rdi
  402a43:	e8 68 e2 ff ff       	callq  400cb0 <_ZSt20__throw_length_errorPKc@plt>
  402a48:	48 8b 45 d8          	mov    -0x28(%rbp),%rax
  402a4c:	48 89 c7             	mov    %rax,%rdi
  402a4f:	e8 7e 08 00 00       	callq  4032d2 <_ZNKSt6vectorImSaImEE4sizeEv>
  402a54:	48 89 c3             	mov    %rax,%rbx
  402a57:	48 8b 45 d8          	mov    -0x28(%rbp),%rax
  402a5b:	48 89 c7             	mov    %rax,%rdi
  402a5e:	e8 6f 08 00 00       	callq  4032d2 <_ZNKSt6vectorImSaImEE4sizeEv>
  402a63:	48 89 45 e0          	mov    %rax,-0x20(%rbp)
  402a67:	48 8d 55 d0          	lea    -0x30(%rbp),%rdx
  402a6b:	48 8d 45 e0          	lea    -0x20(%rbp),%rax
  402a6f:	48 89 d6             	mov    %rdx,%rsi
  402a72:	48 89 c7             	mov    %rax,%rdi
  402a75:	e8 a0 08 00 00       	callq  40331a <_ZSt3maxImERKT_S2_S2_>
  402a7a:	48 8b 00             	mov    (%rax),%rax
  402a7d:	48 01 d8             	add    %rbx,%rax
  402a80:	48 89 45 e8          	mov    %rax,-0x18(%rbp)
  402a84:	48 8b 45 d8          	mov    -0x28(%rbp),%rax
  402a88:	48 89 c7             	mov    %rax,%rdi
  402a8b:	e8 42 08 00 00       	callq  4032d2 <_ZNKSt6vectorImSaImEE4sizeEv>
  402a90:	48 3b 45 e8          	cmp    -0x18(%rbp),%rax
  402a94:	77 12                	ja     402aa8 <_ZNKSt6vectorImSaImEE12_M_check_lenEmPKc+0xb0>
  402a96:	48 8b 45 d8          	mov    -0x28(%rbp),%rax
  402a9a:	48 89 c7             	mov    %rax,%rdi
  402a9d:	e8 56 08 00 00       	callq  4032f8 <_ZNKSt6vectorImSaImEE8max_sizeEv>
  402aa2:	48 3b 45 e8          	cmp    -0x18(%rbp),%rax
  402aa6:	73 0e                	jae    402ab6 <_ZNKSt6vectorImSaImEE12_M_check_lenEmPKc+0xbe>
  402aa8:	48 8b 45 d8          	mov    -0x28(%rbp),%rax
  402aac:	48 89 c7             	mov    %rax,%rdi
  402aaf:	e8 44 08 00 00       	callq  4032f8 <_ZNKSt6vectorImSaImEE8max_sizeEv>
  402ab4:	eb 04                	jmp    402aba <_ZNKSt6vectorImSaImEE12_M_check_lenEmPKc+0xc2>
  402ab6:	48 8b 45 e8          	mov    -0x18(%rbp),%rax
  402aba:	48 83 c4 38          	add    $0x38,%rsp
  402abe:	5b                   	pop    %rbx
  402abf:	5d                   	pop    %rbp
  402ac0:	c3                   	retq   
  402ac1:	90                   	nop

0000000000402ac2 <_ZNSt6vectorImSaImEE5beginEv>:
  402ac2:	55                   	push   %rbp
  402ac3:	48 89 e5             	mov    %rsp,%rbp
  402ac6:	48 83 ec 20          	sub    $0x20,%rsp
  402aca:	48 89 7d e8          	mov    %rdi,-0x18(%rbp)
  402ace:	48 8b 55 e8          	mov    -0x18(%rbp),%rdx
  402ad2:	48 8d 45 f0          	lea    -0x10(%rbp),%rax
  402ad6:	48 89 d6             	mov    %rdx,%rsi
  402ad9:	48 89 c7             	mov    %rax,%rdi
  402adc:	e8 d9 00 00 00       	callq  402bba <_ZN9__gnu_cxx17__normal_iteratorIPmSt6vectorImSaImEEEC1ERKS1_>
  402ae1:	48 8b 45 f0          	mov    -0x10(%rbp),%rax
  402ae5:	c9                   	leaveq 
  402ae6:	c3                   	retq   

0000000000402ae7 <_ZN9__gnu_cxxmiIPmSt6vectorImSaImEEEENS_17__normal_iteratorIT_T0_E15difference_typeERKS8_SB_>:
  402ae7:	55                   	push   %rbp
  402ae8:	48 89 e5             	mov    %rsp,%rbp
  402aeb:	53                   	push   %rbx
  402aec:	48 83 ec 18          	sub    $0x18,%rsp
  402af0:	48 89 7d e8          	mov    %rdi,-0x18(%rbp)
  402af4:	48 89 75 e0          	mov    %rsi,-0x20(%rbp)
  402af8:	48 8b 45 e8          	mov    -0x18(%rbp),%rax
  402afc:	48 89 c7             	mov    %rax,%rdi
  402aff:	e8 8e fe ff ff       	callq  402992 <_ZNK9__gnu_cxx17__normal_iteratorIPmSt6vectorImSaImEEE4baseEv>
  402b04:	48 8b 00             	mov    (%rax),%rax
  402b07:	48 89 c3             	mov    %rax,%rbx
  402b0a:	48 8b 45 e0          	mov    -0x20(%rbp),%rax
  402b0e:	48 89 c7             	mov    %rax,%rdi
  402b11:	e8 7c fe ff ff       	callq  402992 <_ZNK9__gnu_cxx17__normal_iteratorIPmSt6vectorImSaImEEE4baseEv>
  402b16:	48 8b 00             	mov    (%rax),%rax
  402b19:	48 29 c3             	sub    %rax,%rbx
  402b1c:	48 89 d8             	mov    %rbx,%rax
  402b1f:	48 c1 f8 03          	sar    $0x3,%rax
  402b23:	48 83 c4 18          	add    $0x18,%rsp
  402b27:	5b                   	pop    %rbx
  402b28:	5d                   	pop    %rbp
  402b29:	c3                   	retq   

0000000000402b2a <_ZNSt12_Vector_baseImSaImEE11_M_allocateEm>:
  402b2a:	55                   	push   %rbp
  402b2b:	48 89 e5             	mov    %rsp,%rbp
  402b2e:	48 83 ec 10          	sub    $0x10,%rsp
  402b32:	48 89 7d f8          	mov    %rdi,-0x8(%rbp)
  402b36:	48 89 75 f0          	mov    %rsi,-0x10(%rbp)
  402b3a:	48 83 7d f0 00       	cmpq   $0x0,-0x10(%rbp)
  402b3f:	74 1a                	je     402b5b <_ZNSt12_Vector_baseImSaImEE11_M_allocateEm+0x31>
  402b41:	48 8b 45 f8          	mov    -0x8(%rbp),%rax
  402b45:	48 8b 4d f0          	mov    -0x10(%rbp),%rcx
  402b49:	ba 00 00 00 00       	mov    $0x0,%edx
  402b4e:	48 89 ce             	mov    %rcx,%rsi
  402b51:	48 89 c7             	mov    %rax,%rdi
  402b54:	e8 ed 07 00 00       	callq  403346 <_ZN9__gnu_cxx13new_allocatorImE8allocateEmPKv>
  402b59:	eb 05                	jmp    402b60 <_ZNSt12_Vector_baseImSaImEE11_M_allocateEm+0x36>
  402b5b:	b8 00 00 00 00       	mov    $0x0,%eax
  402b60:	c9                   	leaveq 
  402b61:	c3                   	retq   

0000000000402b62 <_ZSt34__uninitialized_move_if_noexcept_aIPmS0_SaImEET0_T_S3_S2_RT1_>:
  402b62:	55                   	push   %rbp
  402b63:	48 89 e5             	mov    %rsp,%rbp
  402b66:	48 83 ec 20          	sub    $0x20,%rsp
  402b6a:	48 89 7d f8          	mov    %rdi,-0x8(%rbp)
  402b6e:	48 89 75 f0          	mov    %rsi,-0x10(%rbp)
  402b72:	48 89 55 e8          	mov    %rdx,-0x18(%rbp)
  402b76:	48 89 4d e0          	mov    %rcx,-0x20(%rbp)
  402b7a:	48 8b 4d e0          	mov    -0x20(%rbp),%rcx
  402b7e:	48 8b 55 e8          	mov    -0x18(%rbp),%rdx
  402b82:	48 8b 75 f0          	mov    -0x10(%rbp),%rsi
  402b86:	48 8b 45 f8          	mov    -0x8(%rbp),%rax
  402b8a:	48 89 c7             	mov    %rax,%rdi
  402b8d:	e8 f6 07 00 00       	callq  403388 <_ZSt22__uninitialized_copy_aIPmS0_mET0_T_S2_S1_RSaIT1_E>
  402b92:	c9                   	leaveq 
  402b93:	c3                   	retq   

0000000000402b94 <_ZN9__gnu_cxx14__alloc_traitsISaImEE7destroyERS1_Pm>:
  402b94:	55                   	push   %rbp
  402b95:	48 89 e5             	mov    %rsp,%rbp
  402b98:	48 83 ec 10          	sub    $0x10,%rsp
  402b9c:	48 89 7d f8          	mov    %rdi,-0x8(%rbp)
  402ba0:	48 89 75 f0          	mov    %rsi,-0x10(%rbp)
  402ba4:	48 8b 55 f0          	mov    -0x10(%rbp),%rdx
  402ba8:	48 8b 45 f8          	mov    -0x8(%rbp),%rax
  402bac:	48 89 d6             	mov    %rdx,%rsi
  402baf:	48 89 c7             	mov    %rax,%rdi
  402bb2:	e8 03 08 00 00       	callq  4033ba <_ZN9__gnu_cxx13new_allocatorImE7destroyEPm>
  402bb7:	c9                   	leaveq 
  402bb8:	c3                   	retq   
  402bb9:	90                   	nop

0000000000402bba <_ZN9__gnu_cxx17__normal_iteratorIPmSt6vectorImSaImEEEC1ERKS1_>:
  402bba:	55                   	push   %rbp
  402bbb:	48 89 e5             	mov    %rsp,%rbp
  402bbe:	48 89 7d f8          	mov    %rdi,-0x8(%rbp)
  402bc2:	48 89 75 f0          	mov    %rsi,-0x10(%rbp)
  402bc6:	48 8b 45 f0          	mov    -0x10(%rbp),%rax
  402bca:	48 8b 10             	mov    (%rax),%rdx
  402bcd:	48 8b 45 f8          	mov    -0x8(%rbp),%rax
  402bd1:	48 89 10             	mov    %rdx,(%rax)
  402bd4:	5d                   	pop    %rbp
  402bd5:	c3                   	retq   

0000000000402bd6 <_ZN9__gnu_cxx13new_allocatorISt6vectorImSaImEEE9constructEPS3_RKS3_>:
  402bd6:	55                   	push   %rbp
  402bd7:	48 89 e5             	mov    %rsp,%rbp
  402bda:	41 55                	push   %r13
  402bdc:	41 54                	push   %r12
  402bde:	53                   	push   %rbx
  402bdf:	48 83 ec 28          	sub    $0x28,%rsp
  402be3:	48 89 7d d8          	mov    %rdi,-0x28(%rbp)
  402be7:	48 89 75 d0          	mov    %rsi,-0x30(%rbp)
  402beb:	48 89 55 c8          	mov    %rdx,-0x38(%rbp)
  402bef:	4c 8b 65 d0          	mov    -0x30(%rbp),%r12
  402bf3:	4c 89 e6             	mov    %r12,%rsi
  402bf6:	bf 18 00 00 00       	mov    $0x18,%edi
  402bfb:	e8 a1 ec ff ff       	callq  4018a1 <_ZnwmPv>
  402c00:	48 89 c3             	mov    %rax,%rbx
  402c03:	48 85 db             	test   %rbx,%rbx
  402c06:	74 11                	je     402c19 <_ZN9__gnu_cxx13new_allocatorISt6vectorImSaImEEE9constructEPS3_RKS3_+0x43>
  402c08:	48 8b 45 c8          	mov    -0x38(%rbp),%rax
  402c0c:	48 89 c6             	mov    %rax,%rsi
  402c0f:	48 89 df             	mov    %rbx,%rdi
  402c12:	e8 29 00 00 00       	callq  402c40 <_ZNSt6vectorImSaImEEC1ERKS1_>
  402c17:	eb 1b                	jmp    402c34 <_ZN9__gnu_cxx13new_allocatorISt6vectorImSaImEEE9constructEPS3_RKS3_+0x5e>
  402c19:	eb 19                	jmp    402c34 <_ZN9__gnu_cxx13new_allocatorISt6vectorImSaImEEE9constructEPS3_RKS3_+0x5e>
  402c1b:	49 89 c5             	mov    %rax,%r13
  402c1e:	4c 89 e6             	mov    %r12,%rsi
  402c21:	48 89 df             	mov    %rbx,%rdi
  402c24:	e8 8a ec ff ff       	callq  4018b3 <_ZdlPvS_>
  402c29:	4c 89 e8             	mov    %r13,%rax
  402c2c:	48 89 c7             	mov    %rax,%rdi
  402c2f:	e8 4c e2 ff ff       	callq  400e80 <_Unwind_Resume@plt>
  402c34:	48 83 c4 28          	add    $0x28,%rsp
  402c38:	5b                   	pop    %rbx
  402c39:	41 5c                	pop    %r12
  402c3b:	41 5d                	pop    %r13
  402c3d:	5d                   	pop    %rbp
  402c3e:	c3                   	retq   
  402c3f:	90                   	nop

0000000000402c40 <_ZNSt6vectorImSaImEEC1ERKS1_>:
  402c40:	55                   	push   %rbp
  402c41:	48 89 e5             	mov    %rsp,%rbp
  402c44:	41 55                	push   %r13
  402c46:	41 54                	push   %r12
  402c48:	53                   	push   %rbx
  402c49:	48 83 ec 18          	sub    $0x18,%rsp
  402c4d:	48 89 7d d8          	mov    %rdi,-0x28(%rbp)
  402c51:	48 89 75 d0          	mov    %rsi,-0x30(%rbp)
  402c55:	48 8b 45 d0          	mov    -0x30(%rbp),%rax
  402c59:	48 89 c7             	mov    %rax,%rdi
  402c5c:	e8 75 07 00 00       	callq  4033d6 <_ZNKSt12_Vector_baseImSaImEE19_M_get_Tp_allocatorEv>
  402c61:	48 89 c7             	mov    %rax,%rdi
  402c64:	e8 5f 07 00 00       	callq  4033c8 <_ZN9__gnu_cxx14__alloc_traitsISaImEE17_S_select_on_copyERKS1_>
  402c69:	48 89 c3             	mov    %rax,%rbx
  402c6c:	48 8b 45 d0          	mov    -0x30(%rbp),%rax
  402c70:	48 89 c7             	mov    %rax,%rdi
  402c73:	e8 5a 06 00 00       	callq  4032d2 <_ZNKSt6vectorImSaImEE4sizeEv>
  402c78:	48 89 c1             	mov    %rax,%rcx
  402c7b:	48 8b 45 d8          	mov    -0x28(%rbp),%rax
  402c7f:	48 89 da             	mov    %rbx,%rdx
  402c82:	48 89 ce             	mov    %rcx,%rsi
  402c85:	48 89 c7             	mov    %rax,%rdi
  402c88:	e8 57 07 00 00       	callq  4033e4 <_ZNSt12_Vector_baseImSaImEEC1EmRKS0_>
  402c8d:	48 8b 45 d8          	mov    -0x28(%rbp),%rax
  402c91:	48 89 c7             	mov    %rax,%rdi
  402c94:	e8 3b f4 ff ff       	callq  4020d4 <_ZNSt12_Vector_baseImSaImEE19_M_get_Tp_allocatorEv>
  402c99:	49 89 c5             	mov    %rax,%r13
  402c9c:	48 8b 45 d8          	mov    -0x28(%rbp),%rax
  402ca0:	4c 8b 20             	mov    (%rax),%r12
  402ca3:	48 8b 45 d0          	mov    -0x30(%rbp),%rax
  402ca7:	48 89 c7             	mov    %rax,%rdi
  402caa:	e8 c3 07 00 00       	callq  403472 <_ZNKSt6vectorImSaImEE3endEv>
  402caf:	48 89 c3             	mov    %rax,%rbx
  402cb2:	48 8b 45 d0          	mov    -0x30(%rbp),%rax
  402cb6:	48 89 c7             	mov    %rax,%rdi
  402cb9:	e8 84 07 00 00       	callq  403442 <_ZNKSt6vectorImSaImEE5beginEv>
  402cbe:	4c 89 e9             	mov    %r13,%rcx
  402cc1:	4c 89 e2             	mov    %r12,%rdx
  402cc4:	48 89 de             	mov    %rbx,%rsi
  402cc7:	48 89 c7             	mov    %rax,%rdi
  402cca:	e8 d4 07 00 00       	callq  4034a3 <_ZSt22__uninitialized_copy_aIN9__gnu_cxx17__normal_iteratorIPKmSt6vectorImSaImEEEEPmmET0_T_SA_S9_RSaIT1_E>
  402ccf:	48 8b 55 d8          	mov    -0x28(%rbp),%rdx
  402cd3:	48 89 42 08          	mov    %rax,0x8(%rdx)
  402cd7:	eb 1a                	jmp    402cf3 <_ZNSt6vectorImSaImEEC1ERKS1_+0xb3>
  402cd9:	48 89 c3             	mov    %rax,%rbx
  402cdc:	48 8b 45 d8          	mov    -0x28(%rbp),%rax
  402ce0:	48 89 c7             	mov    %rax,%rdi
  402ce3:	e8 7a f3 ff ff       	callq  402062 <_ZNSt12_Vector_baseImSaImEED1Ev>
  402ce8:	48 89 d8             	mov    %rbx,%rax
  402ceb:	48 89 c7             	mov    %rax,%rdi
  402cee:	e8 8d e1 ff ff       	callq  400e80 <_Unwind_Resume@plt>
  402cf3:	48 83 c4 18          	add    $0x18,%rsp
  402cf7:	5b                   	pop    %rbx
  402cf8:	41 5c                	pop    %r12
  402cfa:	41 5d                	pop    %r13
  402cfc:	5d                   	pop    %rbp
  402cfd:	c3                   	retq   

0000000000402cfe <_ZNK9__gnu_cxx17__normal_iteratorIPSt6vectorImSaImEES1_IS3_SaIS3_EEE4baseEv>:
  402cfe:	55                   	push   %rbp
  402cff:	48 89 e5             	mov    %rsp,%rbp
  402d02:	48 89 7d f8          	mov    %rdi,-0x8(%rbp)
  402d06:	48 8b 45 f8          	mov    -0x8(%rbp),%rax
  402d0a:	5d                   	pop    %rbp
  402d0b:	c3                   	retq   

0000000000402d0c <_ZSt13copy_backwardIPSt6vectorImSaImEES3_ET0_T_S5_S4_>:
  402d0c:	55                   	push   %rbp
  402d0d:	48 89 e5             	mov    %rsp,%rbp
  402d10:	53                   	push   %rbx
  402d11:	48 83 ec 28          	sub    $0x28,%rsp
  402d15:	48 89 7d e8          	mov    %rdi,-0x18(%rbp)
  402d19:	48 89 75 e0          	mov    %rsi,-0x20(%rbp)
  402d1d:	48 89 55 d8          	mov    %rdx,-0x28(%rbp)
  402d21:	48 8b 45 e0          	mov    -0x20(%rbp),%rax
  402d25:	48 89 c7             	mov    %rax,%rdi
  402d28:	e8 a7 07 00 00       	callq  4034d4 <_ZSt12__miter_baseIPSt6vectorImSaImEEENSt11_Miter_baseIT_E13iterator_typeES5_>
  402d2d:	48 89 c3             	mov    %rax,%rbx
  402d30:	48 8b 45 e8          	mov    -0x18(%rbp),%rax
  402d34:	48 89 c7             	mov    %rax,%rdi
  402d37:	e8 98 07 00 00       	callq  4034d4 <_ZSt12__miter_baseIPSt6vectorImSaImEEENSt11_Miter_baseIT_E13iterator_typeES5_>
  402d3c:	48 8b 55 d8          	mov    -0x28(%rbp),%rdx
  402d40:	48 89 de             	mov    %rbx,%rsi
  402d43:	48 89 c7             	mov    %rax,%rdi
  402d46:	e8 a3 07 00 00       	callq  4034ee <_ZSt23__copy_move_backward_a2ILb0EPSt6vectorImSaImEES3_ET1_T0_S5_S4_>
  402d4b:	48 83 c4 28          	add    $0x28,%rsp
  402d4f:	5b                   	pop    %rbx
  402d50:	5d                   	pop    %rbp
  402d51:	c3                   	retq   

0000000000402d52 <_ZNK9__gnu_cxx17__normal_iteratorIPSt6vectorImSaImEES1_IS3_SaIS3_EEEdeEv>:
  402d52:	55                   	push   %rbp
  402d53:	48 89 e5             	mov    %rsp,%rbp
  402d56:	48 89 7d f8          	mov    %rdi,-0x8(%rbp)
  402d5a:	48 8b 45 f8          	mov    -0x8(%rbp),%rax
  402d5e:	48 8b 00             	mov    (%rax),%rax
  402d61:	5d                   	pop    %rbp
  402d62:	c3                   	retq   
  402d63:	90                   	nop

0000000000402d64 <_ZNSt6vectorImSaImEEaSERKS1_>:
  402d64:	55                   	push   %rbp
  402d65:	48 89 e5             	mov    %rsp,%rbp
  402d68:	41 56                	push   %r14
  402d6a:	41 55                	push   %r13
  402d6c:	41 54                	push   %r12
  402d6e:	53                   	push   %rbx
  402d6f:	48 83 ec 20          	sub    $0x20,%rsp
  402d73:	48 89 7d c8          	mov    %rdi,-0x38(%rbp)
  402d77:	48 89 75 c0          	mov    %rsi,-0x40(%rbp)
  402d7b:	48 8b 45 c0          	mov    -0x40(%rbp),%rax
  402d7f:	48 3b 45 c8          	cmp    -0x38(%rbp),%rax
  402d83:	0f 84 03 02 00 00    	je     402f8c <_ZNSt6vectorImSaImEEaSERKS1_+0x228>
  402d89:	48 8b 45 c0          	mov    -0x40(%rbp),%rax
  402d8d:	48 89 c7             	mov    %rax,%rdi
  402d90:	e8 3d 05 00 00       	callq  4032d2 <_ZNKSt6vectorImSaImEE4sizeEv>
  402d95:	48 89 45 d0          	mov    %rax,-0x30(%rbp)
  402d99:	48 8b 45 c8          	mov    -0x38(%rbp),%rax
  402d9d:	48 89 c7             	mov    %rax,%rdi
  402da0:	e8 a1 07 00 00       	callq  403546 <_ZNKSt6vectorImSaImEE8capacityEv>
  402da5:	48 3b 45 d0          	cmp    -0x30(%rbp),%rax
  402da9:	0f 92 c0             	setb   %al
  402dac:	84 c0                	test   %al,%al
  402dae:	0f 84 bd 00 00 00    	je     402e71 <_ZNSt6vectorImSaImEEaSERKS1_+0x10d>
  402db4:	48 8b 45 c0          	mov    -0x40(%rbp),%rax
  402db8:	48 89 c7             	mov    %rax,%rdi
  402dbb:	e8 b2 06 00 00       	callq  403472 <_ZNKSt6vectorImSaImEE3endEv>
  402dc0:	48 89 c3             	mov    %rax,%rbx
  402dc3:	48 8b 45 c0          	mov    -0x40(%rbp),%rax
  402dc7:	48 89 c7             	mov    %rax,%rdi
  402dca:	e8 73 06 00 00       	callq  403442 <_ZNKSt6vectorImSaImEE5beginEv>
  402dcf:	48 89 c2             	mov    %rax,%rdx
  402dd2:	48 8b 75 d0          	mov    -0x30(%rbp),%rsi
  402dd6:	48 8b 45 c8          	mov    -0x38(%rbp),%rax
  402dda:	48 89 d9             	mov    %rbx,%rcx
  402ddd:	48 89 c7             	mov    %rax,%rdi
  402de0:	e8 87 07 00 00       	callq  40356c <_ZNSt6vectorImSaImEE20_M_allocate_and_copyIN9__gnu_cxx17__normal_iteratorIPKmS1_EEEEPmmT_S9_>
  402de5:	48 89 45 d8          	mov    %rax,-0x28(%rbp)
  402de9:	48 8b 45 c8          	mov    -0x38(%rbp),%rax
  402ded:	48 89 c7             	mov    %rax,%rdi
  402df0:	e8 df f2 ff ff       	callq  4020d4 <_ZNSt12_Vector_baseImSaImEE19_M_get_Tp_allocatorEv>
  402df5:	48 89 c2             	mov    %rax,%rdx
  402df8:	48 8b 45 c8          	mov    -0x38(%rbp),%rax
  402dfc:	48 8b 48 08          	mov    0x8(%rax),%rcx
  402e00:	48 8b 45 c8          	mov    -0x38(%rbp),%rax
  402e04:	48 8b 00             	mov    (%rax),%rax
  402e07:	48 89 ce             	mov    %rcx,%rsi
  402e0a:	48 89 c7             	mov    %rax,%rdi
  402e0d:	e8 d0 f2 ff ff       	callq  4020e2 <_ZSt8_DestroyIPmmEvT_S1_RSaIT0_E>
  402e12:	48 8b 45 c8          	mov    -0x38(%rbp),%rax
  402e16:	48 8b 40 10          	mov    0x10(%rax),%rax
  402e1a:	48 89 c2             	mov    %rax,%rdx
  402e1d:	48 8b 45 c8          	mov    -0x38(%rbp),%rax
  402e21:	48 8b 00             	mov    (%rax),%rax
  402e24:	48 29 c2             	sub    %rax,%rdx
  402e27:	48 89 d0             	mov    %rdx,%rax
  402e2a:	48 c1 f8 03          	sar    $0x3,%rax
  402e2e:	48 89 c2             	mov    %rax,%rdx
  402e31:	48 8b 45 c8          	mov    -0x38(%rbp),%rax
  402e35:	48 8b 08             	mov    (%rax),%rcx
  402e38:	48 8b 45 c8          	mov    -0x38(%rbp),%rax
  402e3c:	48 89 ce             	mov    %rcx,%rsi
  402e3f:	48 89 c7             	mov    %rax,%rdi
  402e42:	e8 bb fa ff ff       	callq  402902 <_ZNSt12_Vector_baseImSaImEE13_M_deallocateEPmm>
  402e47:	48 8b 45 c8          	mov    -0x38(%rbp),%rax
  402e4b:	48 8b 55 d8          	mov    -0x28(%rbp),%rdx
  402e4f:	48 89 10             	mov    %rdx,(%rax)
  402e52:	48 8b 45 c8          	mov    -0x38(%rbp),%rax
  402e56:	48 8b 00             	mov    (%rax),%rax
  402e59:	48 8b 55 d0          	mov    -0x30(%rbp),%rdx
  402e5d:	48 c1 e2 03          	shl    $0x3,%rdx
  402e61:	48 01 c2             	add    %rax,%rdx
  402e64:	48 8b 45 c8          	mov    -0x38(%rbp),%rax
  402e68:	48 89 50 10          	mov    %rdx,0x10(%rax)
  402e6c:	e9 01 01 00 00       	jmpq   402f72 <_ZNSt6vectorImSaImEEaSERKS1_+0x20e>
  402e71:	48 8b 45 c8          	mov    -0x38(%rbp),%rax
  402e75:	48 89 c7             	mov    %rax,%rdi
  402e78:	e8 55 04 00 00       	callq  4032d2 <_ZNKSt6vectorImSaImEE4sizeEv>
  402e7d:	48 3b 45 d0          	cmp    -0x30(%rbp),%rax
  402e81:	0f 93 c0             	setae  %al
  402e84:	84 c0                	test   %al,%al
  402e86:	74 69                	je     402ef1 <_ZNSt6vectorImSaImEEaSERKS1_+0x18d>
  402e88:	48 8b 45 c8          	mov    -0x38(%rbp),%rax
  402e8c:	48 89 c7             	mov    %rax,%rdi
  402e8f:	e8 40 f2 ff ff       	callq  4020d4 <_ZNSt12_Vector_baseImSaImEE19_M_get_Tp_allocatorEv>
  402e94:	49 89 c4             	mov    %rax,%r12
  402e97:	48 8b 45 c8          	mov    -0x38(%rbp),%rax
  402e9b:	48 89 c7             	mov    %rax,%rdi
  402e9e:	e8 7f f5 ff ff       	callq  402422 <_ZNSt6vectorImSaImEE3endEv>
  402ea3:	48 89 c3             	mov    %rax,%rbx
  402ea6:	48 8b 45 c8          	mov    -0x38(%rbp),%rax
  402eaa:	48 89 c7             	mov    %rax,%rdi
  402ead:	e8 10 fc ff ff       	callq  402ac2 <_ZNSt6vectorImSaImEE5beginEv>
  402eb2:	49 89 c6             	mov    %rax,%r14
  402eb5:	48 8b 45 c0          	mov    -0x40(%rbp),%rax
  402eb9:	48 89 c7             	mov    %rax,%rdi
  402ebc:	e8 b1 05 00 00       	callq  403472 <_ZNKSt6vectorImSaImEE3endEv>
  402ec1:	49 89 c5             	mov    %rax,%r13
  402ec4:	48 8b 45 c0          	mov    -0x40(%rbp),%rax
  402ec8:	48 89 c7             	mov    %rax,%rdi
  402ecb:	e8 72 05 00 00       	callq  403442 <_ZNKSt6vectorImSaImEE5beginEv>
  402ed0:	4c 89 f2             	mov    %r14,%rdx
  402ed3:	4c 89 ee             	mov    %r13,%rsi
  402ed6:	48 89 c7             	mov    %rax,%rdi
  402ed9:	e8 25 07 00 00       	callq  403603 <_ZSt4copyIN9__gnu_cxx17__normal_iteratorIPKmSt6vectorImSaImEEEENS1_IPmS6_EEET0_T_SB_SA_>
  402ede:	4c 89 e2             	mov    %r12,%rdx
  402ee1:	48 89 de             	mov    %rbx,%rsi
  402ee4:	48 89 c7             	mov    %rax,%rdi
  402ee7:	e8 5d 07 00 00       	callq  403649 <_ZSt8_DestroyIN9__gnu_cxx17__normal_iteratorIPmSt6vectorImSaImEEEEmEvT_S7_RSaIT0_E>
  402eec:	e9 81 00 00 00       	jmpq   402f72 <_ZNSt6vectorImSaImEEaSERKS1_+0x20e>
  402ef1:	48 8b 45 c8          	mov    -0x38(%rbp),%rax
  402ef5:	48 8b 18             	mov    (%rax),%rbx
  402ef8:	48 8b 45 c0          	mov    -0x40(%rbp),%rax
  402efc:	4c 8b 20             	mov    (%rax),%r12
  402eff:	48 8b 45 c8          	mov    -0x38(%rbp),%rax
  402f03:	48 89 c7             	mov    %rax,%rdi
  402f06:	e8 c7 03 00 00       	callq  4032d2 <_ZNKSt6vectorImSaImEE4sizeEv>
  402f0b:	48 c1 e0 03          	shl    $0x3,%rax
  402f0f:	49 8d 0c 04          	lea    (%r12,%rax,1),%rcx
  402f13:	48 8b 45 c0          	mov    -0x40(%rbp),%rax
  402f17:	48 8b 00             	mov    (%rax),%rax
  402f1a:	48 89 da             	mov    %rbx,%rdx
  402f1d:	48 89 ce             	mov    %rcx,%rsi
  402f20:	48 89 c7             	mov    %rax,%rdi
  402f23:	e8 4a 07 00 00       	callq  403672 <_ZSt4copyIPmS0_ET0_T_S2_S1_>
  402f28:	48 8b 45 c8          	mov    -0x38(%rbp),%rax
  402f2c:	48 89 c7             	mov    %rax,%rdi
  402f2f:	e8 a0 f1 ff ff       	callq  4020d4 <_ZNSt12_Vector_baseImSaImEE19_M_get_Tp_allocatorEv>
  402f34:	49 89 c5             	mov    %rax,%r13
  402f37:	48 8b 45 c8          	mov    -0x38(%rbp),%rax
  402f3b:	4c 8b 60 08          	mov    0x8(%rax),%r12
  402f3f:	48 8b 45 c0          	mov    -0x40(%rbp),%rax
  402f43:	48 8b 58 08          	mov    0x8(%rax),%rbx
  402f47:	48 8b 45 c0          	mov    -0x40(%rbp),%rax
  402f4b:	4c 8b 30             	mov    (%rax),%r14
  402f4e:	48 8b 45 c8          	mov    -0x38(%rbp),%rax
  402f52:	48 89 c7             	mov    %rax,%rdi
  402f55:	e8 78 03 00 00       	callq  4032d2 <_ZNKSt6vectorImSaImEE4sizeEv>
  402f5a:	48 c1 e0 03          	shl    $0x3,%rax
  402f5e:	4c 01 f0             	add    %r14,%rax
  402f61:	4c 89 e9             	mov    %r13,%rcx
  402f64:	4c 89 e2             	mov    %r12,%rdx
  402f67:	48 89 de             	mov    %rbx,%rsi
  402f6a:	48 89 c7             	mov    %rax,%rdi
  402f6d:	e8 16 04 00 00       	callq  403388 <_ZSt22__uninitialized_copy_aIPmS0_mET0_T_S2_S1_RSaIT1_E>
  402f72:	48 8b 45 c8          	mov    -0x38(%rbp),%rax
  402f76:	48 8b 00             	mov    (%rax),%rax
  402f79:	48 8b 55 d0          	mov    -0x30(%rbp),%rdx
  402f7d:	48 c1 e2 03          	shl    $0x3,%rdx
  402f81:	48 01 c2             	add    %rax,%rdx
  402f84:	48 8b 45 c8          	mov    -0x38(%rbp),%rax
  402f88:	48 89 50 08          	mov    %rdx,0x8(%rax)
  402f8c:	48 8b 45 c8          	mov    -0x38(%rbp),%rax
  402f90:	48 83 c4 20          	add    $0x20,%rsp
  402f94:	5b                   	pop    %rbx
  402f95:	41 5c                	pop    %r12
  402f97:	41 5d                	pop    %r13
  402f99:	41 5e                	pop    %r14
  402f9b:	5d                   	pop    %rbp
  402f9c:	c3                   	retq   
  402f9d:	90                   	nop

0000000000402f9e <_ZNKSt6vectorIS_ImSaImEESaIS1_EE12_M_check_lenEmPKc>:
  402f9e:	55                   	push   %rbp
  402f9f:	48 89 e5             	mov    %rsp,%rbp
  402fa2:	53                   	push   %rbx
  402fa3:	48 83 ec 38          	sub    $0x38,%rsp
  402fa7:	48 89 7d d8          	mov    %rdi,-0x28(%rbp)
  402fab:	48 89 75 d0          	mov    %rsi,-0x30(%rbp)
  402faf:	48 89 55 c8          	mov    %rdx,-0x38(%rbp)
  402fb3:	48 8b 45 d8          	mov    -0x28(%rbp),%rax
  402fb7:	48 89 c7             	mov    %rax,%rdi
  402fba:	e8 f9 06 00 00       	callq  4036b8 <_ZNKSt6vectorIS_ImSaImEESaIS1_EE8max_sizeEv>
  402fbf:	48 89 c3             	mov    %rax,%rbx
  402fc2:	48 8b 45 d8          	mov    -0x28(%rbp),%rax
  402fc6:	48 89 c7             	mov    %rax,%rdi
  402fc9:	e8 d6 ee ff ff       	callq  401ea4 <_ZNKSt6vectorIS_ImSaImEESaIS1_EE4sizeEv>
  402fce:	48 29 c3             	sub    %rax,%rbx
  402fd1:	48 89 da             	mov    %rbx,%rdx
  402fd4:	48 8b 45 d0          	mov    -0x30(%rbp),%rax
  402fd8:	48 39 c2             	cmp    %rax,%rdx
  402fdb:	0f 92 c0             	setb   %al
  402fde:	84 c0                	test   %al,%al
  402fe0:	74 0c                	je     402fee <_ZNKSt6vectorIS_ImSaImEESaIS1_EE12_M_check_lenEmPKc+0x50>
  402fe2:	48 8b 45 c8          	mov    -0x38(%rbp),%rax
  402fe6:	48 89 c7             	mov    %rax,%rdi
  402fe9:	e8 c2 dc ff ff       	callq  400cb0 <_ZSt20__throw_length_errorPKc@plt>
  402fee:	48 8b 45 d8          	mov    -0x28(%rbp),%rax
  402ff2:	48 89 c7             	mov    %rax,%rdi
  402ff5:	e8 aa ee ff ff       	callq  401ea4 <_ZNKSt6vectorIS_ImSaImEESaIS1_EE4sizeEv>
  402ffa:	48 89 c3             	mov    %rax,%rbx
  402ffd:	48 8b 45 d8          	mov    -0x28(%rbp),%rax
  403001:	48 89 c7             	mov    %rax,%rdi
  403004:	e8 9b ee ff ff       	callq  401ea4 <_ZNKSt6vectorIS_ImSaImEESaIS1_EE4sizeEv>
  403009:	48 89 45 e0          	mov    %rax,-0x20(%rbp)
  40300d:	48 8d 55 d0          	lea    -0x30(%rbp),%rdx
  403011:	48 8d 45 e0          	lea    -0x20(%rbp),%rax
  403015:	48 89 d6             	mov    %rdx,%rsi
  403018:	48 89 c7             	mov    %rax,%rdi
  40301b:	e8 fa 02 00 00       	callq  40331a <_ZSt3maxImERKT_S2_S2_>
  403020:	48 8b 00             	mov    (%rax),%rax
  403023:	48 01 d8             	add    %rbx,%rax
  403026:	48 89 45 e8          	mov    %rax,-0x18(%rbp)
  40302a:	48 8b 45 d8          	mov    -0x28(%rbp),%rax
  40302e:	48 89 c7             	mov    %rax,%rdi
  403031:	e8 6e ee ff ff       	callq  401ea4 <_ZNKSt6vectorIS_ImSaImEESaIS1_EE4sizeEv>
  403036:	48 3b 45 e8          	cmp    -0x18(%rbp),%rax
  40303a:	77 12                	ja     40304e <_ZNKSt6vectorIS_ImSaImEESaIS1_EE12_M_check_lenEmPKc+0xb0>
  40303c:	48 8b 45 d8          	mov    -0x28(%rbp),%rax
  403040:	48 89 c7             	mov    %rax,%rdi
  403043:	e8 70 06 00 00       	callq  4036b8 <_ZNKSt6vectorIS_ImSaImEESaIS1_EE8max_sizeEv>
  403048:	48 3b 45 e8          	cmp    -0x18(%rbp),%rax
  40304c:	73 0e                	jae    40305c <_ZNKSt6vectorIS_ImSaImEESaIS1_EE12_M_check_lenEmPKc+0xbe>
  40304e:	48 8b 45 d8          	mov    -0x28(%rbp),%rax
  403052:	48 89 c7             	mov    %rax,%rdi
  403055:	e8 5e 06 00 00       	callq  4036b8 <_ZNKSt6vectorIS_ImSaImEESaIS1_EE8max_sizeEv>
  40305a:	eb 04                	jmp    403060 <_ZNKSt6vectorIS_ImSaImEESaIS1_EE12_M_check_lenEmPKc+0xc2>
  40305c:	48 8b 45 e8          	mov    -0x18(%rbp),%rax
  403060:	48 83 c4 38          	add    $0x38,%rsp
  403064:	5b                   	pop    %rbx
  403065:	5d                   	pop    %rbp
  403066:	c3                   	retq   
  403067:	90                   	nop

0000000000403068 <_ZNSt6vectorIS_ImSaImEESaIS1_EE5beginEv>:
  403068:	55                   	push   %rbp
  403069:	48 89 e5             	mov    %rsp,%rbp
  40306c:	48 83 ec 20          	sub    $0x20,%rsp
  403070:	48 89 7d e8          	mov    %rdi,-0x18(%rbp)
  403074:	48 8b 55 e8          	mov    -0x18(%rbp),%rdx
  403078:	48 8d 45 f0          	lea    -0x10(%rbp),%rax
  40307c:	48 89 d6             	mov    %rdx,%rsi
  40307f:	48 89 c7             	mov    %rax,%rdi
  403082:	e8 eb 00 00 00       	callq  403172 <_ZN9__gnu_cxx17__normal_iteratorIPSt6vectorImSaImEES1_IS3_SaIS3_EEEC1ERKS4_>
  403087:	48 8b 45 f0          	mov    -0x10(%rbp),%rax
  40308b:	c9                   	leaveq 
  40308c:	c3                   	retq   

000000000040308d <_ZN9__gnu_cxxmiIPSt6vectorImSaImEES1_IS3_SaIS3_EEEENS_17__normal_iteratorIT_T0_E15difference_typeERKSA_SD_>:
  40308d:	55                   	push   %rbp
  40308e:	48 89 e5             	mov    %rsp,%rbp
  403091:	53                   	push   %rbx
  403092:	48 83 ec 18          	sub    $0x18,%rsp
  403096:	48 89 7d e8          	mov    %rdi,-0x18(%rbp)
  40309a:	48 89 75 e0          	mov    %rsi,-0x20(%rbp)
  40309e:	48 8b 45 e8          	mov    -0x18(%rbp),%rax
  4030a2:	48 89 c7             	mov    %rax,%rdi
  4030a5:	e8 54 fc ff ff       	callq  402cfe <_ZNK9__gnu_cxx17__normal_iteratorIPSt6vectorImSaImEES1_IS3_SaIS3_EEE4baseEv>
  4030aa:	48 8b 00             	mov    (%rax),%rax
  4030ad:	48 89 c3             	mov    %rax,%rbx
  4030b0:	48 8b 45 e0          	mov    -0x20(%rbp),%rax
  4030b4:	48 89 c7             	mov    %rax,%rdi
  4030b7:	e8 42 fc ff ff       	callq  402cfe <_ZNK9__gnu_cxx17__normal_iteratorIPSt6vectorImSaImEES1_IS3_SaIS3_EEE4baseEv>
  4030bc:	48 8b 00             	mov    (%rax),%rax
  4030bf:	48 29 c3             	sub    %rax,%rbx
  4030c2:	48 89 d8             	mov    %rbx,%rax
  4030c5:	48 c1 f8 03          	sar    $0x3,%rax
  4030c9:	48 89 c2             	mov    %rax,%rdx
  4030cc:	48 b8 ab aa aa aa aa 	movabs $0xaaaaaaaaaaaaaaab,%rax
  4030d3:	aa aa aa 
  4030d6:	48 0f af c2          	imul   %rdx,%rax
  4030da:	48 83 c4 18          	add    $0x18,%rsp
  4030de:	5b                   	pop    %rbx
  4030df:	5d                   	pop    %rbp
  4030e0:	c3                   	retq   
  4030e1:	90                   	nop

00000000004030e2 <_ZNSt12_Vector_baseISt6vectorImSaImEESaIS2_EE11_M_allocateEm>:
  4030e2:	55                   	push   %rbp
  4030e3:	48 89 e5             	mov    %rsp,%rbp
  4030e6:	48 83 ec 10          	sub    $0x10,%rsp
  4030ea:	48 89 7d f8          	mov    %rdi,-0x8(%rbp)
  4030ee:	48 89 75 f0          	mov    %rsi,-0x10(%rbp)
  4030f2:	48 83 7d f0 00       	cmpq   $0x0,-0x10(%rbp)
  4030f7:	74 1a                	je     403113 <_ZNSt12_Vector_baseISt6vectorImSaImEESaIS2_EE11_M_allocateEm+0x31>
  4030f9:	48 8b 45 f8          	mov    -0x8(%rbp),%rax
  4030fd:	48 8b 4d f0          	mov    -0x10(%rbp),%rcx
  403101:	ba 00 00 00 00       	mov    $0x0,%edx
  403106:	48 89 ce             	mov    %rcx,%rsi
  403109:	48 89 c7             	mov    %rax,%rdi
  40310c:	e8 c9 05 00 00       	callq  4036da <_ZN9__gnu_cxx13new_allocatorISt6vectorImSaImEEE8allocateEmPKv>
  403111:	eb 05                	jmp    403118 <_ZNSt12_Vector_baseISt6vectorImSaImEESaIS2_EE11_M_allocateEm+0x36>
  403113:	b8 00 00 00 00       	mov    $0x0,%eax
  403118:	c9                   	leaveq 
  403119:	c3                   	retq   

000000000040311a <_ZSt34__uninitialized_move_if_noexcept_aIPSt6vectorImSaImEES3_SaIS2_EET0_T_S6_S5_RT1_>:
  40311a:	55                   	push   %rbp
  40311b:	48 89 e5             	mov    %rsp,%rbp
  40311e:	48 83 ec 20          	sub    $0x20,%rsp
  403122:	48 89 7d f8          	mov    %rdi,-0x8(%rbp)
  403126:	48 89 75 f0          	mov    %rsi,-0x10(%rbp)
  40312a:	48 89 55 e8          	mov    %rdx,-0x18(%rbp)
  40312e:	48 89 4d e0          	mov    %rcx,-0x20(%rbp)
  403132:	48 8b 4d e0          	mov    -0x20(%rbp),%rcx
  403136:	48 8b 55 e8          	mov    -0x18(%rbp),%rdx
  40313a:	48 8b 75 f0          	mov    -0x10(%rbp),%rsi
  40313e:	48 8b 45 f8          	mov    -0x8(%rbp),%rax
  403142:	48 89 c7             	mov    %rax,%rdi
  403145:	e8 db 05 00 00       	callq  403725 <_ZSt22__uninitialized_copy_aIPSt6vectorImSaImEES3_S2_ET0_T_S5_S4_RSaIT1_E>
  40314a:	c9                   	leaveq 
  40314b:	c3                   	retq   

000000000040314c <_ZN9__gnu_cxx14__alloc_traitsISaISt6vectorImSaImEEEE7destroyERS4_PS3_>:
  40314c:	55                   	push   %rbp
  40314d:	48 89 e5             	mov    %rsp,%rbp
  403150:	48 83 ec 10          	sub    $0x10,%rsp
  403154:	48 89 7d f8          	mov    %rdi,-0x8(%rbp)
  403158:	48 89 75 f0          	mov    %rsi,-0x10(%rbp)
  40315c:	48 8b 55 f0          	mov    -0x10(%rbp),%rdx
  403160:	48 8b 45 f8          	mov    -0x8(%rbp),%rax
  403164:	48 89 d6             	mov    %rdx,%rsi
  403167:	48 89 c7             	mov    %rax,%rdi
  40316a:	e8 e7 05 00 00       	callq  403756 <_ZN9__gnu_cxx13new_allocatorISt6vectorImSaImEEE7destroyEPS3_>
  40316f:	c9                   	leaveq 
  403170:	c3                   	retq   
  403171:	90                   	nop

0000000000403172 <_ZN9__gnu_cxx17__normal_iteratorIPSt6vectorImSaImEES1_IS3_SaIS3_EEEC1ERKS4_>:
  403172:	55                   	push   %rbp
  403173:	48 89 e5             	mov    %rsp,%rbp
  403176:	48 89 7d f8          	mov    %rdi,-0x8(%rbp)
  40317a:	48 89 75 f0          	mov    %rsi,-0x10(%rbp)
  40317e:	48 8b 45 f0          	mov    -0x10(%rbp),%rax
  403182:	48 8b 10             	mov    (%rax),%rdx
  403185:	48 8b 45 f8          	mov    -0x8(%rbp),%rax
  403189:	48 89 10             	mov    %rdx,(%rax)
  40318c:	5d                   	pop    %rbp
  40318d:	c3                   	retq   

000000000040318e <_ZNSaISt6vectorImSaImEEEC1Ev>:
  40318e:	55                   	push   %rbp
  40318f:	48 89 e5             	mov    %rsp,%rbp
  403192:	48 83 ec 10          	sub    $0x10,%rsp
  403196:	48 89 7d f8          	mov    %rdi,-0x8(%rbp)
  40319a:	48 8b 45 f8          	mov    -0x8(%rbp),%rax
  40319e:	48 89 c7             	mov    %rax,%rdi
  4031a1:	e8 ce 05 00 00       	callq  403774 <_ZN9__gnu_cxx13new_allocatorISt6vectorImSaImEEEC1Ev>
  4031a6:	c9                   	leaveq 
  4031a7:	c3                   	retq   

00000000004031a8 <_ZN9__gnu_cxx13new_allocatorISt6vectorImSaImEEED1Ev>:
  4031a8:	55                   	push   %rbp
  4031a9:	48 89 e5             	mov    %rsp,%rbp
  4031ac:	48 89 7d f8          	mov    %rdi,-0x8(%rbp)
  4031b0:	5d                   	pop    %rbp
  4031b1:	c3                   	retq   

00000000004031b2 <_ZN9__gnu_cxx13new_allocatorISt6vectorImSaImEEE10deallocateEPS3_m>:
  4031b2:	55                   	push   %rbp
  4031b3:	48 89 e5             	mov    %rsp,%rbp
  4031b6:	48 83 ec 20          	sub    $0x20,%rsp
  4031ba:	48 89 7d f8          	mov    %rdi,-0x8(%rbp)
  4031be:	48 89 75 f0          	mov    %rsi,-0x10(%rbp)
  4031c2:	48 89 55 e8          	mov    %rdx,-0x18(%rbp)
  4031c6:	48 8b 45 f0          	mov    -0x10(%rbp),%rax
  4031ca:	48 89 c7             	mov    %rax,%rdi
  4031cd:	e8 1e db ff ff       	callq  400cf0 <_ZdlPv@plt>
  4031d2:	c9                   	leaveq 
  4031d3:	c3                   	retq   

00000000004031d4 <_ZNSt12_Destroy_auxILb0EE9__destroyIPSt6vectorImSaImEEEEvT_S6_>:
  4031d4:	55                   	push   %rbp
  4031d5:	48 89 e5             	mov    %rsp,%rbp
  4031d8:	48 83 ec 10          	sub    $0x10,%rsp
  4031dc:	48 89 7d f8          	mov    %rdi,-0x8(%rbp)
  4031e0:	48 89 75 f0          	mov    %rsi,-0x10(%rbp)
  4031e4:	eb 19                	jmp    4031ff <_ZNSt12_Destroy_auxILb0EE9__destroyIPSt6vectorImSaImEEEEvT_S6_+0x2b>
  4031e6:	48 8b 45 f8          	mov    -0x8(%rbp),%rax
  4031ea:	48 89 c7             	mov    %rax,%rdi
  4031ed:	e8 8c 05 00 00       	callq  40377e <_ZSt11__addressofISt6vectorImSaImEEEPT_RS3_>
  4031f2:	48 89 c7             	mov    %rax,%rdi
  4031f5:	e8 92 05 00 00       	callq  40378c <_ZSt8_DestroyISt6vectorImSaImEEEvPT_>
  4031fa:	48 83 45 f8 18       	addq   $0x18,-0x8(%rbp)
  4031ff:	48 8b 45 f8          	mov    -0x8(%rbp),%rax
  403203:	48 3b 45 f0          	cmp    -0x10(%rbp),%rax
  403207:	75 dd                	jne    4031e6 <_ZNSt12_Destroy_auxILb0EE9__destroyIPSt6vectorImSaImEEEEvT_S6_+0x12>
  403209:	c9                   	leaveq 
  40320a:	c3                   	retq   
  40320b:	90                   	nop

000000000040320c <_ZNSaImEC1Ev>:
  40320c:	55                   	push   %rbp
  40320d:	48 89 e5             	mov    %rsp,%rbp
  403210:	48 83 ec 10          	sub    $0x10,%rsp
  403214:	48 89 7d f8          	mov    %rdi,-0x8(%rbp)
  403218:	48 8b 45 f8          	mov    -0x8(%rbp),%rax
  40321c:	48 89 c7             	mov    %rax,%rdi
  40321f:	e8 82 05 00 00       	callq  4037a6 <_ZN9__gnu_cxx13new_allocatorImEC1Ev>
  403224:	c9                   	leaveq 
  403225:	c3                   	retq   

0000000000403226 <_ZN9__gnu_cxx13new_allocatorImED1Ev>:
  403226:	55                   	push   %rbp
  403227:	48 89 e5             	mov    %rsp,%rbp
  40322a:	48 89 7d f8          	mov    %rdi,-0x8(%rbp)
  40322e:	5d                   	pop    %rbp
  40322f:	c3                   	retq   

0000000000403230 <_ZN9__gnu_cxx13new_allocatorImE10deallocateEPmm>:
  403230:	55                   	push   %rbp
  403231:	48 89 e5             	mov    %rsp,%rbp
  403234:	48 83 ec 20          	sub    $0x20,%rsp
  403238:	48 89 7d f8          	mov    %rdi,-0x8(%rbp)
  40323c:	48 89 75 f0          	mov    %rsi,-0x10(%rbp)
  403240:	48 89 55 e8          	mov    %rdx,-0x18(%rbp)
  403244:	48 8b 45 f0          	mov    -0x10(%rbp),%rax
  403248:	48 89 c7             	mov    %rax,%rdi
  40324b:	e8 a0 da ff ff       	callq  400cf0 <_ZdlPv@plt>
  403250:	c9                   	leaveq 
  403251:	c3                   	retq   

0000000000403252 <_ZNSt12_Destroy_auxILb1EE9__destroyIPmEEvT_S3_>:
  403252:	55                   	push   %rbp
  403253:	48 89 e5             	mov    %rsp,%rbp
  403256:	48 89 7d f8          	mov    %rdi,-0x8(%rbp)
  40325a:	48 89 75 f0          	mov    %rsi,-0x10(%rbp)
  40325e:	5d                   	pop    %rbp
  40325f:	c3                   	retq   

0000000000403260 <_ZSt12__miter_baseIPmENSt11_Miter_baseIT_E13iterator_typeES2_>:
  403260:	55                   	push   %rbp
  403261:	48 89 e5             	mov    %rsp,%rbp
  403264:	48 83 ec 10          	sub    $0x10,%rsp
  403268:	48 89 7d f8          	mov    %rdi,-0x8(%rbp)
  40326c:	48 8b 45 f8          	mov    -0x8(%rbp),%rax
  403270:	48 89 c7             	mov    %rax,%rdi
  403273:	e8 71 f5 ff ff       	callq  4027e9 <_ZNSt10_Iter_baseIPmLb0EE7_S_baseES0_>
  403278:	c9                   	leaveq 
  403279:	c3                   	retq   

000000000040327a <_ZSt23__copy_move_backward_a2ILb0EPmS0_ET1_T0_S2_S1_>:
  40327a:	55                   	push   %rbp
  40327b:	48 89 e5             	mov    %rsp,%rbp
  40327e:	41 54                	push   %r12
  403280:	53                   	push   %rbx
  403281:	48 83 ec 20          	sub    $0x20,%rsp
  403285:	48 89 7d e8          	mov    %rdi,-0x18(%rbp)
  403289:	48 89 75 e0          	mov    %rsi,-0x20(%rbp)
  40328d:	48 89 55 d8          	mov    %rdx,-0x28(%rbp)
  403291:	48 8b 45 d8          	mov    -0x28(%rbp),%rax
  403295:	48 89 c7             	mov    %rax,%rdi
  403298:	e8 89 ec ff ff       	callq  401f26 <_ZSt12__niter_baseIPmENSt11_Niter_baseIT_E13iterator_typeES2_>
  40329d:	49 89 c4             	mov    %rax,%r12
  4032a0:	48 8b 45 e0          	mov    -0x20(%rbp),%rax
  4032a4:	48 89 c7             	mov    %rax,%rdi
  4032a7:	e8 7a ec ff ff       	callq  401f26 <_ZSt12__niter_baseIPmENSt11_Niter_baseIT_E13iterator_typeES2_>
  4032ac:	48 89 c3             	mov    %rax,%rbx
  4032af:	48 8b 45 e8          	mov    -0x18(%rbp),%rax
  4032b3:	48 89 c7             	mov    %rax,%rdi
  4032b6:	e8 6b ec ff ff       	callq  401f26 <_ZSt12__niter_baseIPmENSt11_Niter_baseIT_E13iterator_typeES2_>
  4032bb:	4c 89 e2             	mov    %r12,%rdx
  4032be:	48 89 de             	mov    %rbx,%rsi
  4032c1:	48 89 c7             	mov    %rax,%rdi
  4032c4:	e8 e7 04 00 00       	callq  4037b0 <_ZSt22__copy_move_backward_aILb0EPmS0_ET1_T0_S2_S1_>
  4032c9:	48 83 c4 20          	add    $0x20,%rsp
  4032cd:	5b                   	pop    %rbx
  4032ce:	41 5c                	pop    %r12
  4032d0:	5d                   	pop    %rbp
  4032d1:	c3                   	retq   

00000000004032d2 <_ZNKSt6vectorImSaImEE4sizeEv>:
  4032d2:	55                   	push   %rbp
  4032d3:	48 89 e5             	mov    %rsp,%rbp
  4032d6:	48 89 7d f8          	mov    %rdi,-0x8(%rbp)
  4032da:	48 8b 45 f8          	mov    -0x8(%rbp),%rax
  4032de:	48 8b 40 08          	mov    0x8(%rax),%rax
  4032e2:	48 89 c2             	mov    %rax,%rdx
  4032e5:	48 8b 45 f8          	mov    -0x8(%rbp),%rax
  4032e9:	48 8b 00             	mov    (%rax),%rax
  4032ec:	48 29 c2             	sub    %rax,%rdx
  4032ef:	48 89 d0             	mov    %rdx,%rax
  4032f2:	48 c1 f8 03          	sar    $0x3,%rax
  4032f6:	5d                   	pop    %rbp
  4032f7:	c3                   	retq   

00000000004032f8 <_ZNKSt6vectorImSaImEE8max_sizeEv>:
  4032f8:	55                   	push   %rbp
  4032f9:	48 89 e5             	mov    %rsp,%rbp
  4032fc:	48 83 ec 10          	sub    $0x10,%rsp
  403300:	48 89 7d f8          	mov    %rdi,-0x8(%rbp)
  403304:	48 8b 45 f8          	mov    -0x8(%rbp),%rax
  403308:	48 89 c7             	mov    %rax,%rdi
  40330b:	e8 c6 00 00 00       	callq  4033d6 <_ZNKSt12_Vector_baseImSaImEE19_M_get_Tp_allocatorEv>
  403310:	48 89 c7             	mov    %rax,%rdi
  403313:	e8 c9 04 00 00       	callq  4037e1 <_ZN9__gnu_cxx14__alloc_traitsISaImEE8max_sizeERKS1_>
  403318:	c9                   	leaveq 
  403319:	c3                   	retq   

000000000040331a <_ZSt3maxImERKT_S2_S2_>:
  40331a:	55                   	push   %rbp
  40331b:	48 89 e5             	mov    %rsp,%rbp
  40331e:	48 89 7d f8          	mov    %rdi,-0x8(%rbp)
  403322:	48 89 75 f0          	mov    %rsi,-0x10(%rbp)
  403326:	48 8b 45 f8          	mov    -0x8(%rbp),%rax
  40332a:	48 8b 10             	mov    (%rax),%rdx
  40332d:	48 8b 45 f0          	mov    -0x10(%rbp),%rax
  403331:	48 8b 00             	mov    (%rax),%rax
  403334:	48 39 c2             	cmp    %rax,%rdx
  403337:	73 06                	jae    40333f <_ZSt3maxImERKT_S2_S2_+0x25>
  403339:	48 8b 45 f0          	mov    -0x10(%rbp),%rax
  40333d:	eb 04                	jmp    403343 <_ZSt3maxImERKT_S2_S2_+0x29>
  40333f:	48 8b 45 f8          	mov    -0x8(%rbp),%rax
  403343:	5d                   	pop    %rbp
  403344:	c3                   	retq   
  403345:	90                   	nop

0000000000403346 <_ZN9__gnu_cxx13new_allocatorImE8allocateEmPKv>:
  403346:	55                   	push   %rbp
  403347:	48 89 e5             	mov    %rsp,%rbp
  40334a:	48 83 ec 20          	sub    $0x20,%rsp
  40334e:	48 89 7d f8          	mov    %rdi,-0x8(%rbp)
  403352:	48 89 75 f0          	mov    %rsi,-0x10(%rbp)
  403356:	48 89 55 e8          	mov    %rdx,-0x18(%rbp)
  40335a:	48 8b 45 f8          	mov    -0x8(%rbp),%rax
  40335e:	48 89 c7             	mov    %rax,%rdi
  403361:	e8 96 04 00 00       	callq  4037fc <_ZNK9__gnu_cxx13new_allocatorImE8max_sizeEv>
  403366:	48 3b 45 f0          	cmp    -0x10(%rbp),%rax
  40336a:	0f 92 c0             	setb   %al
  40336d:	84 c0                	test   %al,%al
  40336f:	74 05                	je     403376 <_ZN9__gnu_cxx13new_allocatorImE8allocateEmPKv+0x30>
  403371:	e8 ba da ff ff       	callq  400e30 <_ZSt17__throw_bad_allocv@plt>
  403376:	48 8b 45 f0          	mov    -0x10(%rbp),%rax
  40337a:	48 c1 e0 03          	shl    $0x3,%rax
  40337e:	48 89 c7             	mov    %rax,%rdi
  403381:	e8 ea da ff ff       	callq  400e70 <_Znwm@plt>
  403386:	c9                   	leaveq 
  403387:	c3                   	retq   

0000000000403388 <_ZSt22__uninitialized_copy_aIPmS0_mET0_T_S2_S1_RSaIT1_E>:
  403388:	55                   	push   %rbp
  403389:	48 89 e5             	mov    %rsp,%rbp
  40338c:	48 83 ec 20          	sub    $0x20,%rsp
  403390:	48 89 7d f8          	mov    %rdi,-0x8(%rbp)
  403394:	48 89 75 f0          	mov    %rsi,-0x10(%rbp)
  403398:	48 89 55 e8          	mov    %rdx,-0x18(%rbp)
  40339c:	48 89 4d e0          	mov    %rcx,-0x20(%rbp)
  4033a0:	48 8b 55 e8          	mov    -0x18(%rbp),%rdx
  4033a4:	48 8b 4d f0          	mov    -0x10(%rbp),%rcx
  4033a8:	48 8b 45 f8          	mov    -0x8(%rbp),%rax
  4033ac:	48 89 ce             	mov    %rcx,%rsi
  4033af:	48 89 c7             	mov    %rax,%rdi
  4033b2:	e8 59 04 00 00       	callq  403810 <_ZSt18uninitialized_copyIPmS0_ET0_T_S2_S1_>
  4033b7:	c9                   	leaveq 
  4033b8:	c3                   	retq   
  4033b9:	90                   	nop

00000000004033ba <_ZN9__gnu_cxx13new_allocatorImE7destroyEPm>:
  4033ba:	55                   	push   %rbp
  4033bb:	48 89 e5             	mov    %rsp,%rbp
  4033be:	48 89 7d f8          	mov    %rdi,-0x8(%rbp)
  4033c2:	48 89 75 f0          	mov    %rsi,-0x10(%rbp)
  4033c6:	5d                   	pop    %rbp
  4033c7:	c3                   	retq   

00000000004033c8 <_ZN9__gnu_cxx14__alloc_traitsISaImEE17_S_select_on_copyERKS1_>:
  4033c8:	55                   	push   %rbp
  4033c9:	48 89 e5             	mov    %rsp,%rbp
  4033cc:	48 89 7d f8          	mov    %rdi,-0x8(%rbp)
  4033d0:	48 8b 45 f8          	mov    -0x8(%rbp),%rax
  4033d4:	5d                   	pop    %rbp
  4033d5:	c3                   	retq   

00000000004033d6 <_ZNKSt12_Vector_baseImSaImEE19_M_get_Tp_allocatorEv>:
  4033d6:	55                   	push   %rbp
  4033d7:	48 89 e5             	mov    %rsp,%rbp
  4033da:	48 89 7d f8          	mov    %rdi,-0x8(%rbp)
  4033de:	48 8b 45 f8          	mov    -0x8(%rbp),%rax
  4033e2:	5d                   	pop    %rbp
  4033e3:	c3                   	retq   

00000000004033e4 <_ZNSt12_Vector_baseImSaImEEC1EmRKS0_>:
  4033e4:	55                   	push   %rbp
  4033e5:	48 89 e5             	mov    %rsp,%rbp
  4033e8:	53                   	push   %rbx
  4033e9:	48 83 ec 28          	sub    $0x28,%rsp
  4033ed:	48 89 7d e8          	mov    %rdi,-0x18(%rbp)
  4033f1:	48 89 75 e0          	mov    %rsi,-0x20(%rbp)
  4033f5:	48 89 55 d8          	mov    %rdx,-0x28(%rbp)
  4033f9:	48 8b 45 e8          	mov    -0x18(%rbp),%rax
  4033fd:	48 8b 55 d8          	mov    -0x28(%rbp),%rdx
  403401:	48 89 d6             	mov    %rdx,%rsi
  403404:	48 89 c7             	mov    %rax,%rdi
  403407:	e8 32 04 00 00       	callq  40383e <_ZNSt12_Vector_baseImSaImEE12_Vector_implC1ERKS0_>
  40340c:	48 8b 55 e0          	mov    -0x20(%rbp),%rdx
  403410:	48 8b 45 e8          	mov    -0x18(%rbp),%rax
  403414:	48 89 d6             	mov    %rdx,%rsi
  403417:	48 89 c7             	mov    %rax,%rdi
  40341a:	e8 67 04 00 00       	callq  403886 <_ZNSt12_Vector_baseImSaImEE17_M_create_storageEm>
  40341f:	eb 1a                	jmp    40343b <_ZNSt12_Vector_baseImSaImEEC1EmRKS0_+0x57>
  403421:	48 89 c3             	mov    %rax,%rbx
  403424:	48 8b 45 e8          	mov    -0x18(%rbp),%rax
  403428:	48 89 c7             	mov    %rax,%rdi
  40342b:	e8 fe eb ff ff       	callq  40202e <_ZNSt12_Vector_baseImSaImEE12_Vector_implD1Ev>
  403430:	48 89 d8             	mov    %rbx,%rax
  403433:	48 89 c7             	mov    %rax,%rdi
  403436:	e8 45 da ff ff       	callq  400e80 <_Unwind_Resume@plt>
  40343b:	48 83 c4 28          	add    $0x28,%rsp
  40343f:	5b                   	pop    %rbx
  403440:	5d                   	pop    %rbp
  403441:	c3                   	retq   

0000000000403442 <_ZNKSt6vectorImSaImEE5beginEv>:
  403442:	55                   	push   %rbp
  403443:	48 89 e5             	mov    %rsp,%rbp
  403446:	48 83 ec 20          	sub    $0x20,%rsp
  40344a:	48 89 7d e8          	mov    %rdi,-0x18(%rbp)
  40344e:	48 8b 45 e8          	mov    -0x18(%rbp),%rax
  403452:	48 8b 00             	mov    (%rax),%rax
  403455:	48 89 45 f8          	mov    %rax,-0x8(%rbp)
  403459:	48 8d 55 f8          	lea    -0x8(%rbp),%rdx
  40345d:	48 8d 45 f0          	lea    -0x10(%rbp),%rax
  403461:	48 89 d6             	mov    %rdx,%rsi
  403464:	48 89 c7             	mov    %rax,%rdi
  403467:	e8 70 04 00 00       	callq  4038dc <_ZN9__gnu_cxx17__normal_iteratorIPKmSt6vectorImSaImEEEC1ERKS2_>
  40346c:	48 8b 45 f0          	mov    -0x10(%rbp),%rax
  403470:	c9                   	leaveq 
  403471:	c3                   	retq   

0000000000403472 <_ZNKSt6vectorImSaImEE3endEv>:
  403472:	55                   	push   %rbp
  403473:	48 89 e5             	mov    %rsp,%rbp
  403476:	48 83 ec 20          	sub    $0x20,%rsp
  40347a:	48 89 7d e8          	mov    %rdi,-0x18(%rbp)
  40347e:	48 8b 45 e8          	mov    -0x18(%rbp),%rax
  403482:	48 8b 40 08          	mov    0x8(%rax),%rax
  403486:	48 89 45 f8          	mov    %rax,-0x8(%rbp)
  40348a:	48 8d 55 f8          	lea    -0x8(%rbp),%rdx
  40348e:	48 8d 45 f0          	lea    -0x10(%rbp),%rax
  403492:	48 89 d6             	mov    %rdx,%rsi
  403495:	48 89 c7             	mov    %rax,%rdi
  403498:	e8 3f 04 00 00       	callq  4038dc <_ZN9__gnu_cxx17__normal_iteratorIPKmSt6vectorImSaImEEEC1ERKS2_>
  40349d:	48 8b 45 f0          	mov    -0x10(%rbp),%rax
  4034a1:	c9                   	leaveq 
  4034a2:	c3                   	retq   

00000000004034a3 <_ZSt22__uninitialized_copy_aIN9__gnu_cxx17__normal_iteratorIPKmSt6vectorImSaImEEEEPmmET0_T_SA_S9_RSaIT1_E>:
  4034a3:	55                   	push   %rbp
  4034a4:	48 89 e5             	mov    %rsp,%rbp
  4034a7:	48 83 ec 20          	sub    $0x20,%rsp
  4034ab:	48 89 7d f0          	mov    %rdi,-0x10(%rbp)
  4034af:	48 89 75 e0          	mov    %rsi,-0x20(%rbp)
  4034b3:	48 89 55 e8          	mov    %rdx,-0x18(%rbp)
  4034b7:	48 89 4d f8          	mov    %rcx,-0x8(%rbp)
  4034bb:	48 8b 55 e8          	mov    -0x18(%rbp),%rdx
  4034bf:	48 8b 4d e0          	mov    -0x20(%rbp),%rcx
  4034c3:	48 8b 45 f0          	mov    -0x10(%rbp),%rax
  4034c7:	48 89 ce             	mov    %rcx,%rsi
  4034ca:	48 89 c7             	mov    %rax,%rdi
  4034cd:	e8 26 04 00 00       	callq  4038f8 <_ZSt18uninitialized_copyIN9__gnu_cxx17__normal_iteratorIPKmSt6vectorImSaImEEEEPmET0_T_SA_S9_>
  4034d2:	c9                   	leaveq 
  4034d3:	c3                   	retq   

00000000004034d4 <_ZSt12__miter_baseIPSt6vectorImSaImEEENSt11_Miter_baseIT_E13iterator_typeES5_>:
  4034d4:	55                   	push   %rbp
  4034d5:	48 89 e5             	mov    %rsp,%rbp
  4034d8:	48 83 ec 10          	sub    $0x10,%rsp
  4034dc:	48 89 7d f8          	mov    %rdi,-0x8(%rbp)
  4034e0:	48 8b 45 f8          	mov    -0x8(%rbp),%rax
  4034e4:	48 89 c7             	mov    %rax,%rdi
  4034e7:	e8 39 04 00 00       	callq  403925 <_ZNSt10_Iter_baseIPSt6vectorImSaImEELb0EE7_S_baseES3_>
  4034ec:	c9                   	leaveq 
  4034ed:	c3                   	retq   

00000000004034ee <_ZSt23__copy_move_backward_a2ILb0EPSt6vectorImSaImEES3_ET1_T0_S5_S4_>:
  4034ee:	55                   	push   %rbp
  4034ef:	48 89 e5             	mov    %rsp,%rbp
  4034f2:	41 54                	push   %r12
  4034f4:	53                   	push   %rbx
  4034f5:	48 83 ec 20          	sub    $0x20,%rsp
  4034f9:	48 89 7d e8          	mov    %rdi,-0x18(%rbp)
  4034fd:	48 89 75 e0          	mov    %rsi,-0x20(%rbp)
  403501:	48 89 55 d8          	mov    %rdx,-0x28(%rbp)
  403505:	48 8b 45 d8          	mov    -0x28(%rbp),%rax
  403509:	48 89 c7             	mov    %rax,%rdi
  40350c:	e8 22 04 00 00       	callq  403933 <_ZSt12__niter_baseIPSt6vectorImSaImEEENSt11_Niter_baseIT_E13iterator_typeES5_>
  403511:	49 89 c4             	mov    %rax,%r12
  403514:	48 8b 45 e0          	mov    -0x20(%rbp),%rax
  403518:	48 89 c7             	mov    %rax,%rdi
  40351b:	e8 13 04 00 00       	callq  403933 <_ZSt12__niter_baseIPSt6vectorImSaImEEENSt11_Niter_baseIT_E13iterator_typeES5_>
  403520:	48 89 c3             	mov    %rax,%rbx
  403523:	48 8b 45 e8          	mov    -0x18(%rbp),%rax
  403527:	48 89 c7             	mov    %rax,%rdi
  40352a:	e8 04 04 00 00       	callq  403933 <_ZSt12__niter_baseIPSt6vectorImSaImEEENSt11_Niter_baseIT_E13iterator_typeES5_>
  40352f:	4c 89 e2             	mov    %r12,%rdx
  403532:	48 89 de             	mov    %rbx,%rsi
  403535:	48 89 c7             	mov    %rax,%rdi
  403538:	e8 10 04 00 00       	callq  40394d <_ZSt22__copy_move_backward_aILb0EPSt6vectorImSaImEES3_ET1_T0_S5_S4_>
  40353d:	48 83 c4 20          	add    $0x20,%rsp
  403541:	5b                   	pop    %rbx
  403542:	41 5c                	pop    %r12
  403544:	5d                   	pop    %rbp
  403545:	c3                   	retq   

0000000000403546 <_ZNKSt6vectorImSaImEE8capacityEv>:
  403546:	55                   	push   %rbp
  403547:	48 89 e5             	mov    %rsp,%rbp
  40354a:	48 89 7d f8          	mov    %rdi,-0x8(%rbp)
  40354e:	48 8b 45 f8          	mov    -0x8(%rbp),%rax
  403552:	48 8b 40 10          	mov    0x10(%rax),%rax
  403556:	48 89 c2             	mov    %rax,%rdx
  403559:	48 8b 45 f8          	mov    -0x8(%rbp),%rax
  40355d:	48 8b 00             	mov    (%rax),%rax
  403560:	48 29 c2             	sub    %rax,%rdx
  403563:	48 89 d0             	mov    %rdx,%rax
  403566:	48 c1 f8 03          	sar    $0x3,%rax
  40356a:	5d                   	pop    %rbp
  40356b:	c3                   	retq   

000000000040356c <_ZNSt6vectorImSaImEE20_M_allocate_and_copyIN9__gnu_cxx17__normal_iteratorIPKmS1_EEEEPmmT_S9_>:
  40356c:	55                   	push   %rbp
  40356d:	48 89 e5             	mov    %rsp,%rbp
  403570:	53                   	push   %rbx
  403571:	48 83 ec 48          	sub    $0x48,%rsp
  403575:	48 89 7d d8          	mov    %rdi,-0x28(%rbp)
  403579:	48 89 75 d0          	mov    %rsi,-0x30(%rbp)
  40357d:	48 89 55 c0          	mov    %rdx,-0x40(%rbp)
  403581:	48 89 4d b0          	mov    %rcx,-0x50(%rbp)
  403585:	48 8b 45 d8          	mov    -0x28(%rbp),%rax
  403589:	48 8b 55 d0          	mov    -0x30(%rbp),%rdx
  40358d:	48 89 d6             	mov    %rdx,%rsi
  403590:	48 89 c7             	mov    %rax,%rdi
  403593:	e8 92 f5 ff ff       	callq  402b2a <_ZNSt12_Vector_baseImSaImEE11_M_allocateEm>
  403598:	48 89 45 e8          	mov    %rax,-0x18(%rbp)
  40359c:	48 8b 45 d8          	mov    -0x28(%rbp),%rax
  4035a0:	48 89 c7             	mov    %rax,%rdi
  4035a3:	e8 2c eb ff ff       	callq  4020d4 <_ZNSt12_Vector_baseImSaImEE19_M_get_Tp_allocatorEv>
  4035a8:	48 89 c1             	mov    %rax,%rcx
  4035ab:	48 8b 55 e8          	mov    -0x18(%rbp),%rdx
  4035af:	48 8b 75 b0          	mov    -0x50(%rbp),%rsi
  4035b3:	48 8b 45 c0          	mov    -0x40(%rbp),%rax
  4035b7:	48 89 c7             	mov    %rax,%rdi
  4035ba:	e8 e4 fe ff ff       	callq  4034a3 <_ZSt22__uninitialized_copy_aIN9__gnu_cxx17__normal_iteratorIPKmSt6vectorImSaImEEEEPmmET0_T_SA_S9_RSaIT1_E>
  4035bf:	48 8b 45 e8          	mov    -0x18(%rbp),%rax
  4035c3:	eb 37                	jmp    4035fc <_ZNSt6vectorImSaImEE20_M_allocate_and_copyIN9__gnu_cxx17__normal_iteratorIPKmS1_EEEEPmmT_S9_+0x90>
  4035c5:	48 89 c3             	mov    %rax,%rbx
  4035c8:	e8 53 d8 ff ff       	callq  400e20 <__cxa_end_catch@plt>
  4035cd:	48 89 d8             	mov    %rbx,%rax
  4035d0:	48 89 c7             	mov    %rax,%rdi
  4035d3:	e8 a8 d8 ff ff       	callq  400e80 <_Unwind_Resume@plt>
  4035d8:	48 89 c7             	mov    %rax,%rdi
  4035db:	e8 70 d8 ff ff       	callq  400e50 <__cxa_begin_catch@plt>
  4035e0:	48 8b 45 d8          	mov    -0x28(%rbp),%rax
  4035e4:	48 8b 55 d0          	mov    -0x30(%rbp),%rdx
  4035e8:	48 8b 4d e8          	mov    -0x18(%rbp),%rcx
  4035ec:	48 89 ce             	mov    %rcx,%rsi
  4035ef:	48 89 c7             	mov    %rax,%rdi
  4035f2:	e8 0b f3 ff ff       	callq  402902 <_ZNSt12_Vector_baseImSaImEE13_M_deallocateEPmm>
  4035f7:	e8 24 d7 ff ff       	callq  400d20 <__cxa_rethrow@plt>
  4035fc:	48 83 c4 48          	add    $0x48,%rsp
  403600:	5b                   	pop    %rbx
  403601:	5d                   	pop    %rbp
  403602:	c3                   	retq   

0000000000403603 <_ZSt4copyIN9__gnu_cxx17__normal_iteratorIPKmSt6vectorImSaImEEEENS1_IPmS6_EEET0_T_SB_SA_>:
  403603:	55                   	push   %rbp
  403604:	48 89 e5             	mov    %rsp,%rbp
  403607:	53                   	push   %rbx
  403608:	48 83 ec 38          	sub    $0x38,%rsp
  40360c:	48 89 7d e0          	mov    %rdi,-0x20(%rbp)
  403610:	48 89 75 d0          	mov    %rsi,-0x30(%rbp)
  403614:	48 89 55 c0          	mov    %rdx,-0x40(%rbp)
  403618:	48 8b 45 d0          	mov    -0x30(%rbp),%rax
  40361c:	48 89 c7             	mov    %rax,%rdi
  40361f:	e8 5a 03 00 00       	callq  40397e <_ZSt12__miter_baseIN9__gnu_cxx17__normal_iteratorIPKmSt6vectorImSaImEEEEENSt11_Miter_baseIT_E13iterator_typeES9_>
  403624:	48 89 c3             	mov    %rax,%rbx
  403627:	48 8b 45 e0          	mov    -0x20(%rbp),%rax
  40362b:	48 89 c7             	mov    %rax,%rdi
  40362e:	e8 4b 03 00 00       	callq  40397e <_ZSt12__miter_baseIN9__gnu_cxx17__normal_iteratorIPKmSt6vectorImSaImEEEEENSt11_Miter_baseIT_E13iterator_typeES9_>
  403633:	48 8b 55 c0          	mov    -0x40(%rbp),%rdx
  403637:	48 89 de             	mov    %rbx,%rsi
  40363a:	48 89 c7             	mov    %rax,%rdi
  40363d:	e8 56 03 00 00       	callq  403998 <_ZSt14__copy_move_a2ILb0EN9__gnu_cxx17__normal_iteratorIPKmSt6vectorImSaImEEEENS1_IPmS6_EEET1_T0_SB_SA_>
  403642:	48 83 c4 38          	add    $0x38,%rsp
  403646:	5b                   	pop    %rbx
  403647:	5d                   	pop    %rbp
  403648:	c3                   	retq   

0000000000403649 <_ZSt8_DestroyIN9__gnu_cxx17__normal_iteratorIPmSt6vectorImSaImEEEEmEvT_S7_RSaIT0_E>:
  403649:	55                   	push   %rbp
  40364a:	48 89 e5             	mov    %rsp,%rbp
  40364d:	48 83 ec 20          	sub    $0x20,%rsp
  403651:	48 89 7d f0          	mov    %rdi,-0x10(%rbp)
  403655:	48 89 75 e0          	mov    %rsi,-0x20(%rbp)
  403659:	48 89 55 e8          	mov    %rdx,-0x18(%rbp)
  40365d:	48 8b 55 e0          	mov    -0x20(%rbp),%rdx
  403661:	48 8b 45 f0          	mov    -0x10(%rbp),%rax
  403665:	48 89 d6             	mov    %rdx,%rsi
  403668:	48 89 c7             	mov    %rax,%rdi
  40366b:	e8 9b 03 00 00       	callq  403a0b <_ZSt8_DestroyIN9__gnu_cxx17__normal_iteratorIPmSt6vectorImSaImEEEEEvT_S7_>
  403670:	c9                   	leaveq 
  403671:	c3                   	retq   

0000000000403672 <_ZSt4copyIPmS0_ET0_T_S2_S1_>:
  403672:	55                   	push   %rbp
  403673:	48 89 e5             	mov    %rsp,%rbp
  403676:	53                   	push   %rbx
  403677:	48 83 ec 28          	sub    $0x28,%rsp
  40367b:	48 89 7d e8          	mov    %rdi,-0x18(%rbp)
  40367f:	48 89 75 e0          	mov    %rsi,-0x20(%rbp)
  403683:	48 89 55 d8          	mov    %rdx,-0x28(%rbp)
  403687:	48 8b 45 e0          	mov    -0x20(%rbp),%rax
  40368b:	48 89 c7             	mov    %rax,%rdi
  40368e:	e8 cd fb ff ff       	callq  403260 <_ZSt12__miter_baseIPmENSt11_Miter_baseIT_E13iterator_typeES2_>
  403693:	48 89 c3             	mov    %rax,%rbx
  403696:	48 8b 45 e8          	mov    -0x18(%rbp),%rax
  40369a:	48 89 c7             	mov    %rax,%rdi
  40369d:	e8 be fb ff ff       	callq  403260 <_ZSt12__miter_baseIPmENSt11_Miter_baseIT_E13iterator_typeES2_>
  4036a2:	48 8b 55 d8          	mov    -0x28(%rbp),%rdx
  4036a6:	48 89 de             	mov    %rbx,%rsi
  4036a9:	48 89 c7             	mov    %rax,%rdi
  4036ac:	e8 7f 03 00 00       	callq  403a30 <_ZSt14__copy_move_a2ILb0EPmS0_ET1_T0_S2_S1_>
  4036b1:	48 83 c4 28          	add    $0x28,%rsp
  4036b5:	5b                   	pop    %rbx
  4036b6:	5d                   	pop    %rbp
  4036b7:	c3                   	retq   

00000000004036b8 <_ZNKSt6vectorIS_ImSaImEESaIS1_EE8max_sizeEv>:
  4036b8:	55                   	push   %rbp
  4036b9:	48 89 e5             	mov    %rsp,%rbp
  4036bc:	48 83 ec 10          	sub    $0x10,%rsp
  4036c0:	48 89 7d f8          	mov    %rdi,-0x8(%rbp)
  4036c4:	48 8b 45 f8          	mov    -0x8(%rbp),%rax
  4036c8:	48 89 c7             	mov    %rax,%rdi
  4036cb:	e8 d2 03 00 00       	callq  403aa2 <_ZNKSt12_Vector_baseISt6vectorImSaImEESaIS2_EE19_M_get_Tp_allocatorEv>
  4036d0:	48 89 c7             	mov    %rax,%rdi
  4036d3:	e8 b0 03 00 00       	callq  403a88 <_ZN9__gnu_cxx14__alloc_traitsISaISt6vectorImSaImEEEE8max_sizeERKS4_>
  4036d8:	c9                   	leaveq 
  4036d9:	c3                   	retq   

00000000004036da <_ZN9__gnu_cxx13new_allocatorISt6vectorImSaImEEE8allocateEmPKv>:
  4036da:	55                   	push   %rbp
  4036db:	48 89 e5             	mov    %rsp,%rbp
  4036de:	48 83 ec 20          	sub    $0x20,%rsp
  4036e2:	48 89 7d f8          	mov    %rdi,-0x8(%rbp)
  4036e6:	48 89 75 f0          	mov    %rsi,-0x10(%rbp)
  4036ea:	48 89 55 e8          	mov    %rdx,-0x18(%rbp)
  4036ee:	48 8b 45 f8          	mov    -0x8(%rbp),%rax
  4036f2:	48 89 c7             	mov    %rax,%rdi
  4036f5:	e8 b6 03 00 00       	callq  403ab0 <_ZNK9__gnu_cxx13new_allocatorISt6vectorImSaImEEE8max_sizeEv>
  4036fa:	48 3b 45 f0          	cmp    -0x10(%rbp),%rax
  4036fe:	0f 92 c0             	setb   %al
  403701:	84 c0                	test   %al,%al
  403703:	74 05                	je     40370a <_ZN9__gnu_cxx13new_allocatorISt6vectorImSaImEEE8allocateEmPKv+0x30>
  403705:	e8 26 d7 ff ff       	callq  400e30 <_ZSt17__throw_bad_allocv@plt>
  40370a:	48 8b 55 f0          	mov    -0x10(%rbp),%rdx
  40370e:	48 89 d0             	mov    %rdx,%rax
  403711:	48 01 c0             	add    %rax,%rax
  403714:	48 01 d0             	add    %rdx,%rax
  403717:	48 c1 e0 03          	shl    $0x3,%rax
  40371b:	48 89 c7             	mov    %rax,%rdi
  40371e:	e8 4d d7 ff ff       	callq  400e70 <_Znwm@plt>
  403723:	c9                   	leaveq 
  403724:	c3                   	retq   

0000000000403725 <_ZSt22__uninitialized_copy_aIPSt6vectorImSaImEES3_S2_ET0_T_S5_S4_RSaIT1_E>:
  403725:	55                   	push   %rbp
  403726:	48 89 e5             	mov    %rsp,%rbp
  403729:	48 83 ec 20          	sub    $0x20,%rsp
  40372d:	48 89 7d f8          	mov    %rdi,-0x8(%rbp)
  403731:	48 89 75 f0          	mov    %rsi,-0x10(%rbp)
  403735:	48 89 55 e8          	mov    %rdx,-0x18(%rbp)
  403739:	48 89 4d e0          	mov    %rcx,-0x20(%rbp)
  40373d:	48 8b 55 e8          	mov    -0x18(%rbp),%rdx
  403741:	48 8b 4d f0          	mov    -0x10(%rbp),%rcx
  403745:	48 8b 45 f8          	mov    -0x8(%rbp),%rax
  403749:	48 89 ce             	mov    %rcx,%rsi
  40374c:	48 89 c7             	mov    %rax,%rdi
  40374f:	e8 70 03 00 00       	callq  403ac4 <_ZSt18uninitialized_copyIPSt6vectorImSaImEES3_ET0_T_S5_S4_>
  403754:	c9                   	leaveq 
  403755:	c3                   	retq   

0000000000403756 <_ZN9__gnu_cxx13new_allocatorISt6vectorImSaImEEE7destroyEPS3_>:
  403756:	55                   	push   %rbp
  403757:	48 89 e5             	mov    %rsp,%rbp
  40375a:	48 83 ec 10          	sub    $0x10,%rsp
  40375e:	48 89 7d f8          	mov    %rdi,-0x8(%rbp)
  403762:	48 89 75 f0          	mov    %rsi,-0x10(%rbp)
  403766:	48 8b 45 f0          	mov    -0x10(%rbp),%rax
  40376a:	48 89 c7             	mov    %rax,%rdi
  40376d:	e8 d8 e5 ff ff       	callq  401d4a <_ZNSt6vectorImSaImEED1Ev>
  403772:	c9                   	leaveq 
  403773:	c3                   	retq   

0000000000403774 <_ZN9__gnu_cxx13new_allocatorISt6vectorImSaImEEEC1Ev>:
  403774:	55                   	push   %rbp
  403775:	48 89 e5             	mov    %rsp,%rbp
  403778:	48 89 7d f8          	mov    %rdi,-0x8(%rbp)
  40377c:	5d                   	pop    %rbp
  40377d:	c3                   	retq   

000000000040377e <_ZSt11__addressofISt6vectorImSaImEEEPT_RS3_>:
  40377e:	55                   	push   %rbp
  40377f:	48 89 e5             	mov    %rsp,%rbp
  403782:	48 89 7d f8          	mov    %rdi,-0x8(%rbp)
  403786:	48 8b 45 f8          	mov    -0x8(%rbp),%rax
  40378a:	5d                   	pop    %rbp
  40378b:	c3                   	retq   

000000000040378c <_ZSt8_DestroyISt6vectorImSaImEEEvPT_>:
  40378c:	55                   	push   %rbp
  40378d:	48 89 e5             	mov    %rsp,%rbp
  403790:	48 83 ec 10          	sub    $0x10,%rsp
  403794:	48 89 7d f8          	mov    %rdi,-0x8(%rbp)
  403798:	48 8b 45 f8          	mov    -0x8(%rbp),%rax
  40379c:	48 89 c7             	mov    %rax,%rdi
  40379f:	e8 a6 e5 ff ff       	callq  401d4a <_ZNSt6vectorImSaImEED1Ev>
  4037a4:	c9                   	leaveq 
  4037a5:	c3                   	retq   

00000000004037a6 <_ZN9__gnu_cxx13new_allocatorImEC1Ev>:
  4037a6:	55                   	push   %rbp
  4037a7:	48 89 e5             	mov    %rsp,%rbp
  4037aa:	48 89 7d f8          	mov    %rdi,-0x8(%rbp)
  4037ae:	5d                   	pop    %rbp
  4037af:	c3                   	retq   

00000000004037b0 <_ZSt22__copy_move_backward_aILb0EPmS0_ET1_T0_S2_S1_>:
  4037b0:	55                   	push   %rbp
  4037b1:	48 89 e5             	mov    %rsp,%rbp
  4037b4:	48 83 ec 30          	sub    $0x30,%rsp
  4037b8:	48 89 7d e8          	mov    %rdi,-0x18(%rbp)
  4037bc:	48 89 75 e0          	mov    %rsi,-0x20(%rbp)
  4037c0:	48 89 55 d8          	mov    %rdx,-0x28(%rbp)
  4037c4:	c6 45 ff 01          	movb   $0x1,-0x1(%rbp)
  4037c8:	48 8b 55 d8          	mov    -0x28(%rbp),%rdx
  4037cc:	48 8b 4d e0          	mov    -0x20(%rbp),%rcx
  4037d0:	48 8b 45 e8          	mov    -0x18(%rbp),%rax
  4037d4:	48 89 ce             	mov    %rcx,%rsi
  4037d7:	48 89 c7             	mov    %rax,%rdi
  4037da:	e8 12 03 00 00       	callq  403af1 <_ZNSt20__copy_move_backwardILb0ELb1ESt26random_access_iterator_tagE13__copy_move_bImEEPT_PKS3_S6_S4_>
  4037df:	c9                   	leaveq 
  4037e0:	c3                   	retq   

00000000004037e1 <_ZN9__gnu_cxx14__alloc_traitsISaImEE8max_sizeERKS1_>:
  4037e1:	55                   	push   %rbp
  4037e2:	48 89 e5             	mov    %rsp,%rbp
  4037e5:	48 83 ec 10          	sub    $0x10,%rsp
  4037e9:	48 89 7d f8          	mov    %rdi,-0x8(%rbp)
  4037ed:	48 8b 45 f8          	mov    -0x8(%rbp),%rax
  4037f1:	48 89 c7             	mov    %rax,%rdi
  4037f4:	e8 03 00 00 00       	callq  4037fc <_ZNK9__gnu_cxx13new_allocatorImE8max_sizeEv>
  4037f9:	c9                   	leaveq 
  4037fa:	c3                   	retq   
  4037fb:	90                   	nop

00000000004037fc <_ZNK9__gnu_cxx13new_allocatorImE8max_sizeEv>:
  4037fc:	55                   	push   %rbp
  4037fd:	48 89 e5             	mov    %rsp,%rbp
  403800:	48 89 7d f8          	mov    %rdi,-0x8(%rbp)
  403804:	48 b8 ff ff ff ff ff 	movabs $0x1fffffffffffffff,%rax
  40380b:	ff ff 1f 
  40380e:	5d                   	pop    %rbp
  40380f:	c3                   	retq   

0000000000403810 <_ZSt18uninitialized_copyIPmS0_ET0_T_S2_S1_>:
  403810:	55                   	push   %rbp
  403811:	48 89 e5             	mov    %rsp,%rbp
  403814:	48 83 ec 20          	sub    $0x20,%rsp
  403818:	48 89 7d f8          	mov    %rdi,-0x8(%rbp)
  40381c:	48 89 75 f0          	mov    %rsi,-0x10(%rbp)
  403820:	48 89 55 e8          	mov    %rdx,-0x18(%rbp)
  403824:	48 8b 55 e8          	mov    -0x18(%rbp),%rdx
  403828:	48 8b 4d f0          	mov    -0x10(%rbp),%rcx
  40382c:	48 8b 45 f8          	mov    -0x8(%rbp),%rax
  403830:	48 89 ce             	mov    %rcx,%rsi
  403833:	48 89 c7             	mov    %rax,%rdi
  403836:	e8 2e 03 00 00       	callq  403b69 <_ZNSt20__uninitialized_copyILb1EE13__uninit_copyIPmS2_EET0_T_S4_S3_>
  40383b:	c9                   	leaveq 
  40383c:	c3                   	retq   
  40383d:	90                   	nop

000000000040383e <_ZNSt12_Vector_baseImSaImEE12_Vector_implC1ERKS0_>:
  40383e:	55                   	push   %rbp
  40383f:	48 89 e5             	mov    %rsp,%rbp
  403842:	48 83 ec 10          	sub    $0x10,%rsp
  403846:	48 89 7d f8          	mov    %rdi,-0x8(%rbp)
  40384a:	48 89 75 f0          	mov    %rsi,-0x10(%rbp)
  40384e:	48 8b 55 f0          	mov    -0x10(%rbp),%rdx
  403852:	48 8b 45 f8          	mov    -0x8(%rbp),%rax
  403856:	48 89 d6             	mov    %rdx,%rsi
  403859:	48 89 c7             	mov    %rax,%rdi
  40385c:	e8 35 03 00 00       	callq  403b96 <_ZNSaImEC1ERKS_>
  403861:	48 8b 45 f8          	mov    -0x8(%rbp),%rax
  403865:	48 c7 00 00 00 00 00 	movq   $0x0,(%rax)
  40386c:	48 8b 45 f8          	mov    -0x8(%rbp),%rax
  403870:	48 c7 40 08 00 00 00 	movq   $0x0,0x8(%rax)
  403877:	00 
  403878:	48 8b 45 f8          	mov    -0x8(%rbp),%rax
  40387c:	48 c7 40 10 00 00 00 	movq   $0x0,0x10(%rax)
  403883:	00 
  403884:	c9                   	leaveq 
  403885:	c3                   	retq   

0000000000403886 <_ZNSt12_Vector_baseImSaImEE17_M_create_storageEm>:
  403886:	55                   	push   %rbp
  403887:	48 89 e5             	mov    %rsp,%rbp
  40388a:	48 83 ec 10          	sub    $0x10,%rsp
  40388e:	48 89 7d f8          	mov    %rdi,-0x8(%rbp)
  403892:	48 89 75 f0          	mov    %rsi,-0x10(%rbp)
  403896:	48 8b 55 f0          	mov    -0x10(%rbp),%rdx
  40389a:	48 8b 45 f8          	mov    -0x8(%rbp),%rax
  40389e:	48 89 d6             	mov    %rdx,%rsi
  4038a1:	48 89 c7             	mov    %rax,%rdi
  4038a4:	e8 81 f2 ff ff       	callq  402b2a <_ZNSt12_Vector_baseImSaImEE11_M_allocateEm>
  4038a9:	48 8b 55 f8          	mov    -0x8(%rbp),%rdx
  4038ad:	48 89 02             	mov    %rax,(%rdx)
  4038b0:	48 8b 45 f8          	mov    -0x8(%rbp),%rax
  4038b4:	48 8b 10             	mov    (%rax),%rdx
  4038b7:	48 8b 45 f8          	mov    -0x8(%rbp),%rax
  4038bb:	48 89 50 08          	mov    %rdx,0x8(%rax)
  4038bf:	48 8b 45 f8          	mov    -0x8(%rbp),%rax
  4038c3:	48 8b 00             	mov    (%rax),%rax
  4038c6:	48 8b 55 f0          	mov    -0x10(%rbp),%rdx
  4038ca:	48 c1 e2 03          	shl    $0x3,%rdx
  4038ce:	48 01 c2             	add    %rax,%rdx
  4038d1:	48 8b 45 f8          	mov    -0x8(%rbp),%rax
  4038d5:	48 89 50 10          	mov    %rdx,0x10(%rax)
  4038d9:	c9                   	leaveq 
  4038da:	c3                   	retq   
  4038db:	90                   	nop

00000000004038dc <_ZN9__gnu_cxx17__normal_iteratorIPKmSt6vectorImSaImEEEC1ERKS2_>:
  4038dc:	55                   	push   %rbp
  4038dd:	48 89 e5             	mov    %rsp,%rbp
  4038e0:	48 89 7d f8          	mov    %rdi,-0x8(%rbp)
  4038e4:	48 89 75 f0          	mov    %rsi,-0x10(%rbp)
  4038e8:	48 8b 45 f0          	mov    -0x10(%rbp),%rax
  4038ec:	48 8b 10             	mov    (%rax),%rdx
  4038ef:	48 8b 45 f8          	mov    -0x8(%rbp),%rax
  4038f3:	48 89 10             	mov    %rdx,(%rax)
  4038f6:	5d                   	pop    %rbp
  4038f7:	c3                   	retq   

00000000004038f8 <_ZSt18uninitialized_copyIN9__gnu_cxx17__normal_iteratorIPKmSt6vectorImSaImEEEEPmET0_T_SA_S9_>:
  4038f8:	55                   	push   %rbp
  4038f9:	48 89 e5             	mov    %rsp,%rbp
  4038fc:	48 83 ec 20          	sub    $0x20,%rsp
  403900:	48 89 7d f0          	mov    %rdi,-0x10(%rbp)
  403904:	48 89 75 e0          	mov    %rsi,-0x20(%rbp)
  403908:	48 89 55 e8          	mov    %rdx,-0x18(%rbp)
  40390c:	48 8b 55 e8          	mov    -0x18(%rbp),%rdx
  403910:	48 8b 4d e0          	mov    -0x20(%rbp),%rcx
  403914:	48 8b 45 f0          	mov    -0x10(%rbp),%rax
  403918:	48 89 ce             	mov    %rcx,%rsi
  40391b:	48 89 c7             	mov    %rax,%rdi
  40391e:	e8 98 02 00 00       	callq  403bbb <_ZNSt20__uninitialized_copyILb1EE13__uninit_copyIN9__gnu_cxx17__normal_iteratorIPKmSt6vectorImSaImEEEEPmEET0_T_SC_SB_>
  403923:	c9                   	leaveq 
  403924:	c3                   	retq   

0000000000403925 <_ZNSt10_Iter_baseIPSt6vectorImSaImEELb0EE7_S_baseES3_>:
  403925:	55                   	push   %rbp
  403926:	48 89 e5             	mov    %rsp,%rbp
  403929:	48 89 7d f8          	mov    %rdi,-0x8(%rbp)
  40392d:	48 8b 45 f8          	mov    -0x8(%rbp),%rax
  403931:	5d                   	pop    %rbp
  403932:	c3                   	retq   

0000000000403933 <_ZSt12__niter_baseIPSt6vectorImSaImEEENSt11_Niter_baseIT_E13iterator_typeES5_>:
  403933:	55                   	push   %rbp
  403934:	48 89 e5             	mov    %rsp,%rbp
  403937:	48 83 ec 10          	sub    $0x10,%rsp
  40393b:	48 89 7d f8          	mov    %rdi,-0x8(%rbp)
  40393f:	48 8b 45 f8          	mov    -0x8(%rbp),%rax
  403943:	48 89 c7             	mov    %rax,%rdi
  403946:	e8 da ff ff ff       	callq  403925 <_ZNSt10_Iter_baseIPSt6vectorImSaImEELb0EE7_S_baseES3_>
  40394b:	c9                   	leaveq 
  40394c:	c3                   	retq   

000000000040394d <_ZSt22__copy_move_backward_aILb0EPSt6vectorImSaImEES3_ET1_T0_S5_S4_>:
  40394d:	55                   	push   %rbp
  40394e:	48 89 e5             	mov    %rsp,%rbp
  403951:	48 83 ec 30          	sub    $0x30,%rsp
  403955:	48 89 7d e8          	mov    %rdi,-0x18(%rbp)
  403959:	48 89 75 e0          	mov    %rsi,-0x20(%rbp)
  40395d:	48 89 55 d8          	mov    %rdx,-0x28(%rbp)
  403961:	c6 45 ff 00          	movb   $0x0,-0x1(%rbp)
  403965:	48 8b 55 d8          	mov    -0x28(%rbp),%rdx
  403969:	48 8b 4d e0          	mov    -0x20(%rbp),%rcx
  40396d:	48 8b 45 e8          	mov    -0x18(%rbp),%rax
  403971:	48 89 ce             	mov    %rcx,%rsi
  403974:	48 89 c7             	mov    %rax,%rdi
  403977:	e8 6c 02 00 00       	callq  403be8 <_ZNSt20__copy_move_backwardILb0ELb0ESt26random_access_iterator_tagE13__copy_move_bIPSt6vectorImSaImEES6_EET0_T_S8_S7_>
  40397c:	c9                   	leaveq 
  40397d:	c3                   	retq   

000000000040397e <_ZSt12__miter_baseIN9__gnu_cxx17__normal_iteratorIPKmSt6vectorImSaImEEEEENSt11_Miter_baseIT_E13iterator_typeES9_>:
  40397e:	55                   	push   %rbp
  40397f:	48 89 e5             	mov    %rsp,%rbp
  403982:	48 83 ec 10          	sub    $0x10,%rsp
  403986:	48 89 7d f0          	mov    %rdi,-0x10(%rbp)
  40398a:	48 8b 45 f0          	mov    -0x10(%rbp),%rax
  40398e:	48 89 c7             	mov    %rax,%rdi
  403991:	e8 be 02 00 00       	callq  403c54 <_ZNSt10_Iter_baseIN9__gnu_cxx17__normal_iteratorIPKmSt6vectorImSaImEEEELb0EE7_S_baseES7_>
  403996:	c9                   	leaveq 
  403997:	c3                   	retq   

0000000000403998 <_ZSt14__copy_move_a2ILb0EN9__gnu_cxx17__normal_iteratorIPKmSt6vectorImSaImEEEENS1_IPmS6_EEET1_T0_SB_SA_>:
  403998:	55                   	push   %rbp
  403999:	48 89 e5             	mov    %rsp,%rbp
  40399c:	41 54                	push   %r12
  40399e:	53                   	push   %rbx
  40399f:	48 83 ec 40          	sub    $0x40,%rsp
  4039a3:	48 89 7d d0          	mov    %rdi,-0x30(%rbp)
  4039a7:	48 89 75 c0          	mov    %rsi,-0x40(%rbp)
  4039ab:	48 89 55 b0          	mov    %rdx,-0x50(%rbp)
  4039af:	48 8b 45 b0          	mov    -0x50(%rbp),%rax
  4039b3:	48 89 c7             	mov    %rax,%rdi
  4039b6:	e8 c1 02 00 00       	callq  403c7c <_ZSt12__niter_baseIN9__gnu_cxx17__normal_iteratorIPmSt6vectorImSaImEEEEENSt11_Niter_baseIT_E13iterator_typeES8_>
  4039bb:	49 89 c4             	mov    %rax,%r12
  4039be:	48 8b 45 c0          	mov    -0x40(%rbp),%rax
  4039c2:	48 89 c7             	mov    %rax,%rdi
  4039c5:	e8 98 02 00 00       	callq  403c62 <_ZSt12__niter_baseIN9__gnu_cxx17__normal_iteratorIPKmSt6vectorImSaImEEEEENSt11_Niter_baseIT_E13iterator_typeES9_>
  4039ca:	48 89 c3             	mov    %rax,%rbx
  4039cd:	48 8b 45 d0          	mov    -0x30(%rbp),%rax
  4039d1:	48 89 c7             	mov    %rax,%rdi
  4039d4:	e8 89 02 00 00       	callq  403c62 <_ZSt12__niter_baseIN9__gnu_cxx17__normal_iteratorIPKmSt6vectorImSaImEEEEENSt11_Niter_baseIT_E13iterator_typeES9_>
  4039d9:	4c 89 e2             	mov    %r12,%rdx
  4039dc:	48 89 de             	mov    %rbx,%rsi
  4039df:	48 89 c7             	mov    %rax,%rdi
  4039e2:	e8 af 02 00 00       	callq  403c96 <_ZSt13__copy_move_aILb0EPKmPmET1_T0_S4_S3_>
  4039e7:	48 89 45 e8          	mov    %rax,-0x18(%rbp)
  4039eb:	48 8d 55 e8          	lea    -0x18(%rbp),%rdx
  4039ef:	48 8d 45 e0          	lea    -0x20(%rbp),%rax
  4039f3:	48 89 d6             	mov    %rdx,%rsi
  4039f6:	48 89 c7             	mov    %rax,%rdi
  4039f9:	e8 bc f1 ff ff       	callq  402bba <_ZN9__gnu_cxx17__normal_iteratorIPmSt6vectorImSaImEEEC1ERKS1_>
  4039fe:	48 8b 45 e0          	mov    -0x20(%rbp),%rax
  403a02:	48 83 c4 40          	add    $0x40,%rsp
  403a06:	5b                   	pop    %rbx
  403a07:	41 5c                	pop    %r12
  403a09:	5d                   	pop    %rbp
  403a0a:	c3                   	retq   

0000000000403a0b <_ZSt8_DestroyIN9__gnu_cxx17__normal_iteratorIPmSt6vectorImSaImEEEEEvT_S7_>:
  403a0b:	55                   	push   %rbp
  403a0c:	48 89 e5             	mov    %rsp,%rbp
  403a0f:	48 83 ec 20          	sub    $0x20,%rsp
  403a13:	48 89 7d f0          	mov    %rdi,-0x10(%rbp)
  403a17:	48 89 75 e0          	mov    %rsi,-0x20(%rbp)
  403a1b:	48 8b 55 e0          	mov    -0x20(%rbp),%rdx
  403a1f:	48 8b 45 f0          	mov    -0x10(%rbp),%rax
  403a23:	48 89 d6             	mov    %rdx,%rsi
  403a26:	48 89 c7             	mov    %rax,%rdi
  403a29:	e8 99 02 00 00       	callq  403cc7 <_ZNSt12_Destroy_auxILb1EE9__destroyIN9__gnu_cxx17__normal_iteratorIPmSt6vectorImSaImEEEEEEvT_S9_>
  403a2e:	c9                   	leaveq 
  403a2f:	c3                   	retq   

0000000000403a30 <_ZSt14__copy_move_a2ILb0EPmS0_ET1_T0_S2_S1_>:
  403a30:	55                   	push   %rbp
  403a31:	48 89 e5             	mov    %rsp,%rbp
  403a34:	41 54                	push   %r12
  403a36:	53                   	push   %rbx
  403a37:	48 83 ec 20          	sub    $0x20,%rsp
  403a3b:	48 89 7d e8          	mov    %rdi,-0x18(%rbp)
  403a3f:	48 89 75 e0          	mov    %rsi,-0x20(%rbp)
  403a43:	48 89 55 d8          	mov    %rdx,-0x28(%rbp)
  403a47:	48 8b 45 d8          	mov    -0x28(%rbp),%rax
  403a4b:	48 89 c7             	mov    %rax,%rdi
  403a4e:	e8 d3 e4 ff ff       	callq  401f26 <_ZSt12__niter_baseIPmENSt11_Niter_baseIT_E13iterator_typeES2_>
  403a53:	49 89 c4             	mov    %rax,%r12
  403a56:	48 8b 45 e0          	mov    -0x20(%rbp),%rax
  403a5a:	48 89 c7             	mov    %rax,%rdi
  403a5d:	e8 c4 e4 ff ff       	callq  401f26 <_ZSt12__niter_baseIPmENSt11_Niter_baseIT_E13iterator_typeES2_>
  403a62:	48 89 c3             	mov    %rax,%rbx
  403a65:	48 8b 45 e8          	mov    -0x18(%rbp),%rax
  403a69:	48 89 c7             	mov    %rax,%rdi
  403a6c:	e8 b5 e4 ff ff       	callq  401f26 <_ZSt12__niter_baseIPmENSt11_Niter_baseIT_E13iterator_typeES2_>
  403a71:	4c 89 e2             	mov    %r12,%rdx
  403a74:	48 89 de             	mov    %rbx,%rsi
  403a77:	48 89 c7             	mov    %rax,%rdi
  403a7a:	e8 56 02 00 00       	callq  403cd5 <_ZSt13__copy_move_aILb0EPmS0_ET1_T0_S2_S1_>
  403a7f:	48 83 c4 20          	add    $0x20,%rsp
  403a83:	5b                   	pop    %rbx
  403a84:	41 5c                	pop    %r12
  403a86:	5d                   	pop    %rbp
  403a87:	c3                   	retq   

0000000000403a88 <_ZN9__gnu_cxx14__alloc_traitsISaISt6vectorImSaImEEEE8max_sizeERKS4_>:
  403a88:	55                   	push   %rbp
  403a89:	48 89 e5             	mov    %rsp,%rbp
  403a8c:	48 83 ec 10          	sub    $0x10,%rsp
  403a90:	48 89 7d f8          	mov    %rdi,-0x8(%rbp)
  403a94:	48 8b 45 f8          	mov    -0x8(%rbp),%rax
  403a98:	48 89 c7             	mov    %rax,%rdi
  403a9b:	e8 10 00 00 00       	callq  403ab0 <_ZNK9__gnu_cxx13new_allocatorISt6vectorImSaImEEE8max_sizeEv>
  403aa0:	c9                   	leaveq 
  403aa1:	c3                   	retq   

0000000000403aa2 <_ZNKSt12_Vector_baseISt6vectorImSaImEESaIS2_EE19_M_get_Tp_allocatorEv>:
  403aa2:	55                   	push   %rbp
  403aa3:	48 89 e5             	mov    %rsp,%rbp
  403aa6:	48 89 7d f8          	mov    %rdi,-0x8(%rbp)
  403aaa:	48 8b 45 f8          	mov    -0x8(%rbp),%rax
  403aae:	5d                   	pop    %rbp
  403aaf:	c3                   	retq   

0000000000403ab0 <_ZNK9__gnu_cxx13new_allocatorISt6vectorImSaImEEE8max_sizeEv>:
  403ab0:	55                   	push   %rbp
  403ab1:	48 89 e5             	mov    %rsp,%rbp
  403ab4:	48 89 7d f8          	mov    %rdi,-0x8(%rbp)
  403ab8:	48 b8 aa aa aa aa aa 	movabs $0xaaaaaaaaaaaaaaa,%rax
  403abf:	aa aa 0a 
  403ac2:	5d                   	pop    %rbp
  403ac3:	c3                   	retq   

0000000000403ac4 <_ZSt18uninitialized_copyIPSt6vectorImSaImEES3_ET0_T_S5_S4_>:
  403ac4:	55                   	push   %rbp
  403ac5:	48 89 e5             	mov    %rsp,%rbp
  403ac8:	48 83 ec 20          	sub    $0x20,%rsp
  403acc:	48 89 7d f8          	mov    %rdi,-0x8(%rbp)
  403ad0:	48 89 75 f0          	mov    %rsi,-0x10(%rbp)
  403ad4:	48 89 55 e8          	mov    %rdx,-0x18(%rbp)
  403ad8:	48 8b 55 e8          	mov    -0x18(%rbp),%rdx
  403adc:	48 8b 4d f0          	mov    -0x10(%rbp),%rcx
  403ae0:	48 8b 45 f8          	mov    -0x8(%rbp),%rax
  403ae4:	48 89 ce             	mov    %rcx,%rsi
  403ae7:	48 89 c7             	mov    %rax,%rdi
  403aea:	e8 17 02 00 00       	callq  403d06 <_ZNSt20__uninitialized_copyILb0EE13__uninit_copyIPSt6vectorImSaImEES5_EET0_T_S7_S6_>
  403aef:	c9                   	leaveq 
  403af0:	c3                   	retq   

0000000000403af1 <_ZNSt20__copy_move_backwardILb0ELb1ESt26random_access_iterator_tagE13__copy_move_bImEEPT_PKS3_S6_S4_>:
  403af1:	55                   	push   %rbp
  403af2:	48 89 e5             	mov    %rsp,%rbp
  403af5:	48 83 ec 30          	sub    $0x30,%rsp
  403af9:	48 89 7d e8          	mov    %rdi,-0x18(%rbp)
  403afd:	48 89 75 e0          	mov    %rsi,-0x20(%rbp)
  403b01:	48 89 55 d8          	mov    %rdx,-0x28(%rbp)
  403b05:	48 8b 55 e0          	mov    -0x20(%rbp),%rdx
  403b09:	48 8b 45 e8          	mov    -0x18(%rbp),%rax
  403b0d:	48 29 c2             	sub    %rax,%rdx
  403b10:	48 89 d0             	mov    %rdx,%rax
  403b13:	48 c1 f8 03          	sar    $0x3,%rax
  403b17:	48 89 45 f8          	mov    %rax,-0x8(%rbp)
  403b1b:	48 83 7d f8 00       	cmpq   $0x0,-0x8(%rbp)
  403b20:	74 30                	je     403b52 <_ZNSt20__copy_move_backwardILb0ELb1ESt26random_access_iterator_tagE13__copy_move_bImEEPT_PKS3_S6_S4_+0x61>
  403b22:	48 8b 45 f8          	mov    -0x8(%rbp),%rax
  403b26:	48 8d 14 c5 00 00 00 	lea    0x0(,%rax,8),%rdx
  403b2d:	00 
  403b2e:	48 8b 45 f8          	mov    -0x8(%rbp),%rax
  403b32:	48 c1 e0 03          	shl    $0x3,%rax
  403b36:	48 f7 d8             	neg    %rax
  403b39:	48 89 c1             	mov    %rax,%rcx
  403b3c:	48 8b 45 d8          	mov    -0x28(%rbp),%rax
  403b40:	48 01 c1             	add    %rax,%rcx
  403b43:	48 8b 45 e8          	mov    -0x18(%rbp),%rax
  403b47:	48 89 c6             	mov    %rax,%rsi
  403b4a:	48 89 cf             	mov    %rcx,%rdi
  403b4d:	e8 7e d2 ff ff       	callq  400dd0 <memmove@plt>
  403b52:	48 8b 45 f8          	mov    -0x8(%rbp),%rax
  403b56:	48 c1 e0 03          	shl    $0x3,%rax
  403b5a:	48 f7 d8             	neg    %rax
  403b5d:	48 89 c2             	mov    %rax,%rdx
  403b60:	48 8b 45 d8          	mov    -0x28(%rbp),%rax
  403b64:	48 01 d0             	add    %rdx,%rax
  403b67:	c9                   	leaveq 
  403b68:	c3                   	retq   

0000000000403b69 <_ZNSt20__uninitialized_copyILb1EE13__uninit_copyIPmS2_EET0_T_S4_S3_>:
  403b69:	55                   	push   %rbp
  403b6a:	48 89 e5             	mov    %rsp,%rbp
  403b6d:	48 83 ec 20          	sub    $0x20,%rsp
  403b71:	48 89 7d f8          	mov    %rdi,-0x8(%rbp)
  403b75:	48 89 75 f0          	mov    %rsi,-0x10(%rbp)
  403b79:	48 89 55 e8          	mov    %rdx,-0x18(%rbp)
  403b7d:	48 8b 55 e8          	mov    -0x18(%rbp),%rdx
  403b81:	48 8b 4d f0          	mov    -0x10(%rbp),%rcx
  403b85:	48 8b 45 f8          	mov    -0x8(%rbp),%rax
  403b89:	48 89 ce             	mov    %rcx,%rsi
  403b8c:	48 89 c7             	mov    %rax,%rdi
  403b8f:	e8 de fa ff ff       	callq  403672 <_ZSt4copyIPmS0_ET0_T_S2_S1_>
  403b94:	c9                   	leaveq 
  403b95:	c3                   	retq   

0000000000403b96 <_ZNSaImEC1ERKS_>:
  403b96:	55                   	push   %rbp
  403b97:	48 89 e5             	mov    %rsp,%rbp
  403b9a:	48 83 ec 10          	sub    $0x10,%rsp
  403b9e:	48 89 7d f8          	mov    %rdi,-0x8(%rbp)
  403ba2:	48 89 75 f0          	mov    %rsi,-0x10(%rbp)
  403ba6:	48 8b 55 f0          	mov    -0x10(%rbp),%rdx
  403baa:	48 8b 45 f8          	mov    -0x8(%rbp),%rax
  403bae:	48 89 d6             	mov    %rdx,%rsi
  403bb1:	48 89 c7             	mov    %rax,%rdi
  403bb4:	e8 db 01 00 00       	callq  403d94 <_ZN9__gnu_cxx13new_allocatorImEC1ERKS1_>
  403bb9:	c9                   	leaveq 
  403bba:	c3                   	retq   

0000000000403bbb <_ZNSt20__uninitialized_copyILb1EE13__uninit_copyIN9__gnu_cxx17__normal_iteratorIPKmSt6vectorImSaImEEEEPmEET0_T_SC_SB_>:
  403bbb:	55                   	push   %rbp
  403bbc:	48 89 e5             	mov    %rsp,%rbp
  403bbf:	48 83 ec 20          	sub    $0x20,%rsp
  403bc3:	48 89 7d f0          	mov    %rdi,-0x10(%rbp)
  403bc7:	48 89 75 e0          	mov    %rsi,-0x20(%rbp)
  403bcb:	48 89 55 e8          	mov    %rdx,-0x18(%rbp)
  403bcf:	48 8b 55 e8          	mov    -0x18(%rbp),%rdx
  403bd3:	48 8b 4d e0          	mov    -0x20(%rbp),%rcx
  403bd7:	48 8b 45 f0          	mov    -0x10(%rbp),%rax
  403bdb:	48 89 ce             	mov    %rcx,%rsi
  403bde:	48 89 c7             	mov    %rax,%rdi
  403be1:	e8 bc 01 00 00       	callq  403da2 <_ZSt4copyIN9__gnu_cxx17__normal_iteratorIPKmSt6vectorImSaImEEEEPmET0_T_SA_S9_>
  403be6:	c9                   	leaveq 
  403be7:	c3                   	retq   

0000000000403be8 <_ZNSt20__copy_move_backwardILb0ELb0ESt26random_access_iterator_tagE13__copy_move_bIPSt6vectorImSaImEES6_EET0_T_S8_S7_>:
  403be8:	55                   	push   %rbp
  403be9:	48 89 e5             	mov    %rsp,%rbp
  403bec:	48 83 ec 30          	sub    $0x30,%rsp
  403bf0:	48 89 7d e8          	mov    %rdi,-0x18(%rbp)
  403bf4:	48 89 75 e0          	mov    %rsi,-0x20(%rbp)
  403bf8:	48 89 55 d8          	mov    %rdx,-0x28(%rbp)
  403bfc:	48 8b 55 e0          	mov    -0x20(%rbp),%rdx
  403c00:	48 8b 45 e8          	mov    -0x18(%rbp),%rax
  403c04:	48 29 c2             	sub    %rax,%rdx
  403c07:	48 89 d0             	mov    %rdx,%rax
  403c0a:	48 c1 f8 03          	sar    $0x3,%rax
  403c0e:	48 89 c2             	mov    %rax,%rdx
  403c11:	48 b8 ab aa aa aa aa 	movabs $0xaaaaaaaaaaaaaaab,%rax
  403c18:	aa aa aa 
  403c1b:	48 0f af c2          	imul   %rdx,%rax
  403c1f:	48 89 45 f8          	mov    %rax,-0x8(%rbp)
  403c23:	eb 22                	jmp    403c47 <_ZNSt20__copy_move_backwardILb0ELb0ESt26random_access_iterator_tagE13__copy_move_bIPSt6vectorImSaImEES6_EET0_T_S8_S7_+0x5f>
  403c25:	48 83 6d e0 18       	subq   $0x18,-0x20(%rbp)
  403c2a:	48 83 6d d8 18       	subq   $0x18,-0x28(%rbp)
  403c2f:	48 8b 55 e0          	mov    -0x20(%rbp),%rdx
  403c33:	48 8b 45 d8          	mov    -0x28(%rbp),%rax
  403c37:	48 89 d6             	mov    %rdx,%rsi
  403c3a:	48 89 c7             	mov    %rax,%rdi
  403c3d:	e8 22 f1 ff ff       	callq  402d64 <_ZNSt6vectorImSaImEEaSERKS1_>
  403c42:	48 83 6d f8 01       	subq   $0x1,-0x8(%rbp)
  403c47:	48 83 7d f8 00       	cmpq   $0x0,-0x8(%rbp)
  403c4c:	7f d7                	jg     403c25 <_ZNSt20__copy_move_backwardILb0ELb0ESt26random_access_iterator_tagE13__copy_move_bIPSt6vectorImSaImEES6_EET0_T_S8_S7_+0x3d>
  403c4e:	48 8b 45 d8          	mov    -0x28(%rbp),%rax
  403c52:	c9                   	leaveq 
  403c53:	c3                   	retq   

0000000000403c54 <_ZNSt10_Iter_baseIN9__gnu_cxx17__normal_iteratorIPKmSt6vectorImSaImEEEELb0EE7_S_baseES7_>:
  403c54:	55                   	push   %rbp
  403c55:	48 89 e5             	mov    %rsp,%rbp
  403c58:	48 89 7d f0          	mov    %rdi,-0x10(%rbp)
  403c5c:	48 8b 45 f0          	mov    -0x10(%rbp),%rax
  403c60:	5d                   	pop    %rbp
  403c61:	c3                   	retq   

0000000000403c62 <_ZSt12__niter_baseIN9__gnu_cxx17__normal_iteratorIPKmSt6vectorImSaImEEEEENSt11_Niter_baseIT_E13iterator_typeES9_>:
  403c62:	55                   	push   %rbp
  403c63:	48 89 e5             	mov    %rsp,%rbp
  403c66:	48 83 ec 10          	sub    $0x10,%rsp
  403c6a:	48 89 7d f0          	mov    %rdi,-0x10(%rbp)
  403c6e:	48 8b 45 f0          	mov    -0x10(%rbp),%rax
  403c72:	48 89 c7             	mov    %rax,%rdi
  403c75:	e8 6e 01 00 00       	callq  403de8 <_ZNSt10_Iter_baseIN9__gnu_cxx17__normal_iteratorIPKmSt6vectorImSaImEEEELb1EE7_S_baseES7_>
  403c7a:	c9                   	leaveq 
  403c7b:	c3                   	retq   

0000000000403c7c <_ZSt12__niter_baseIN9__gnu_cxx17__normal_iteratorIPmSt6vectorImSaImEEEEENSt11_Niter_baseIT_E13iterator_typeES8_>:
  403c7c:	55                   	push   %rbp
  403c7d:	48 89 e5             	mov    %rsp,%rbp
  403c80:	48 83 ec 10          	sub    $0x10,%rsp
  403c84:	48 89 7d f0          	mov    %rdi,-0x10(%rbp)
  403c88:	48 8b 45 f0          	mov    -0x10(%rbp),%rax
  403c8c:	48 89 c7             	mov    %rax,%rdi
  403c8f:	e8 71 01 00 00       	callq  403e05 <_ZNSt10_Iter_baseIN9__gnu_cxx17__normal_iteratorIPmSt6vectorImSaImEEEELb1EE7_S_baseES6_>
  403c94:	c9                   	leaveq 
  403c95:	c3                   	retq   

0000000000403c96 <_ZSt13__copy_move_aILb0EPKmPmET1_T0_S4_S3_>:
  403c96:	55                   	push   %rbp
  403c97:	48 89 e5             	mov    %rsp,%rbp
  403c9a:	48 83 ec 30          	sub    $0x30,%rsp
  403c9e:	48 89 7d e8          	mov    %rdi,-0x18(%rbp)
  403ca2:	48 89 75 e0          	mov    %rsi,-0x20(%rbp)
  403ca6:	48 89 55 d8          	mov    %rdx,-0x28(%rbp)
  403caa:	c6 45 ff 01          	movb   $0x1,-0x1(%rbp)
  403cae:	48 8b 55 d8          	mov    -0x28(%rbp),%rdx
  403cb2:	48 8b 4d e0          	mov    -0x20(%rbp),%rcx
  403cb6:	48 8b 45 e8          	mov    -0x18(%rbp),%rax
  403cba:	48 89 ce             	mov    %rcx,%rsi
  403cbd:	48 89 c7             	mov    %rax,%rdi
  403cc0:	e8 5d 01 00 00       	callq  403e22 <_ZNSt11__copy_moveILb0ELb1ESt26random_access_iterator_tagE8__copy_mImEEPT_PKS3_S6_S4_>
  403cc5:	c9                   	leaveq 
  403cc6:	c3                   	retq   

0000000000403cc7 <_ZNSt12_Destroy_auxILb1EE9__destroyIN9__gnu_cxx17__normal_iteratorIPmSt6vectorImSaImEEEEEEvT_S9_>:
  403cc7:	55                   	push   %rbp
  403cc8:	48 89 e5             	mov    %rsp,%rbp
  403ccb:	48 89 7d f0          	mov    %rdi,-0x10(%rbp)
  403ccf:	48 89 75 e0          	mov    %rsi,-0x20(%rbp)
  403cd3:	5d                   	pop    %rbp
  403cd4:	c3                   	retq   

0000000000403cd5 <_ZSt13__copy_move_aILb0EPmS0_ET1_T0_S2_S1_>:
  403cd5:	55                   	push   %rbp
  403cd6:	48 89 e5             	mov    %rsp,%rbp
  403cd9:	48 83 ec 30          	sub    $0x30,%rsp
  403cdd:	48 89 7d e8          	mov    %rdi,-0x18(%rbp)
  403ce1:	48 89 75 e0          	mov    %rsi,-0x20(%rbp)
  403ce5:	48 89 55 d8          	mov    %rdx,-0x28(%rbp)
  403ce9:	c6 45 ff 01          	movb   $0x1,-0x1(%rbp)
  403ced:	48 8b 55 d8          	mov    -0x28(%rbp),%rdx
  403cf1:	48 8b 4d e0          	mov    -0x20(%rbp),%rcx
  403cf5:	48 8b 45 e8          	mov    -0x18(%rbp),%rax
  403cf9:	48 89 ce             	mov    %rcx,%rsi
  403cfc:	48 89 c7             	mov    %rax,%rdi
  403cff:	e8 1e 01 00 00       	callq  403e22 <_ZNSt11__copy_moveILb0ELb1ESt26random_access_iterator_tagE8__copy_mImEEPT_PKS3_S6_S4_>
  403d04:	c9                   	leaveq 
  403d05:	c3                   	retq   

0000000000403d06 <_ZNSt20__uninitialized_copyILb0EE13__uninit_copyIPSt6vectorImSaImEES5_EET0_T_S7_S6_>:
  403d06:	55                   	push   %rbp
  403d07:	48 89 e5             	mov    %rsp,%rbp
  403d0a:	53                   	push   %rbx
  403d0b:	48 83 ec 38          	sub    $0x38,%rsp
  403d0f:	48 89 7d d8          	mov    %rdi,-0x28(%rbp)
  403d13:	48 89 75 d0          	mov    %rsi,-0x30(%rbp)
  403d17:	48 89 55 c8          	mov    %rdx,-0x38(%rbp)
  403d1b:	48 8b 45 c8          	mov    -0x38(%rbp),%rax
  403d1f:	48 89 45 e8          	mov    %rax,-0x18(%rbp)
  403d23:	eb 25                	jmp    403d4a <_ZNSt20__uninitialized_copyILb0EE13__uninit_copyIPSt6vectorImSaImEES5_EET0_T_S7_S6_+0x44>
  403d25:	48 8b 45 e8          	mov    -0x18(%rbp),%rax
  403d29:	48 89 c7             	mov    %rax,%rdi
  403d2c:	e8 4d fa ff ff       	callq  40377e <_ZSt11__addressofISt6vectorImSaImEEEPT_RS3_>
  403d31:	48 8b 55 d8          	mov    -0x28(%rbp),%rdx
  403d35:	48 89 d6             	mov    %rdx,%rsi
  403d38:	48 89 c7             	mov    %rax,%rdi
  403d3b:	e8 47 01 00 00       	callq  403e87 <_ZSt10_ConstructISt6vectorImSaImEES2_EvPT_RKT0_>
  403d40:	48 83 45 d8 18       	addq   $0x18,-0x28(%rbp)
  403d45:	48 83 45 e8 18       	addq   $0x18,-0x18(%rbp)
  403d4a:	48 8b 45 d8          	mov    -0x28(%rbp),%rax
  403d4e:	48 3b 45 d0          	cmp    -0x30(%rbp),%rax
  403d52:	75 d1                	jne    403d25 <_ZNSt20__uninitialized_copyILb0EE13__uninit_copyIPSt6vectorImSaImEES5_EET0_T_S7_S6_+0x1f>
  403d54:	48 8b 45 e8          	mov    -0x18(%rbp),%rax
  403d58:	eb 33                	jmp    403d8d <_ZNSt20__uninitialized_copyILb0EE13__uninit_copyIPSt6vectorImSaImEES5_EET0_T_S7_S6_+0x87>
  403d5a:	48 89 c3             	mov    %rax,%rbx
  403d5d:	e8 be d0 ff ff       	callq  400e20 <__cxa_end_catch@plt>
  403d62:	48 89 d8             	mov    %rbx,%rax
  403d65:	48 89 c7             	mov    %rax,%rdi
  403d68:	e8 13 d1 ff ff       	callq  400e80 <_Unwind_Resume@plt>
  403d6d:	48 89 c7             	mov    %rax,%rdi
  403d70:	e8 db d0 ff ff       	callq  400e50 <__cxa_begin_catch@plt>
  403d75:	48 8b 55 e8          	mov    -0x18(%rbp),%rdx
  403d79:	48 8b 45 c8          	mov    -0x38(%rbp),%rax
  403d7d:	48 89 d6             	mov    %rdx,%rsi
  403d80:	48 89 c7             	mov    %rax,%rdi
  403d83:	e8 fc ea ff ff       	callq  402884 <_ZSt8_DestroyIPSt6vectorImSaImEEEvT_S4_>
  403d88:	e8 93 cf ff ff       	callq  400d20 <__cxa_rethrow@plt>
  403d8d:	48 83 c4 38          	add    $0x38,%rsp
  403d91:	5b                   	pop    %rbx
  403d92:	5d                   	pop    %rbp
  403d93:	c3                   	retq   

0000000000403d94 <_ZN9__gnu_cxx13new_allocatorImEC1ERKS1_>:
  403d94:	55                   	push   %rbp
  403d95:	48 89 e5             	mov    %rsp,%rbp
  403d98:	48 89 7d f8          	mov    %rdi,-0x8(%rbp)
  403d9c:	48 89 75 f0          	mov    %rsi,-0x10(%rbp)
  403da0:	5d                   	pop    %rbp
  403da1:	c3                   	retq   

0000000000403da2 <_ZSt4copyIN9__gnu_cxx17__normal_iteratorIPKmSt6vectorImSaImEEEEPmET0_T_SA_S9_>:
  403da2:	55                   	push   %rbp
  403da3:	48 89 e5             	mov    %rsp,%rbp
  403da6:	53                   	push   %rbx
  403da7:	48 83 ec 28          	sub    $0x28,%rsp
  403dab:	48 89 7d e0          	mov    %rdi,-0x20(%rbp)
  403daf:	48 89 75 d0          	mov    %rsi,-0x30(%rbp)
  403db3:	48 89 55 d8          	mov    %rdx,-0x28(%rbp)
  403db7:	48 8b 45 d0          	mov    -0x30(%rbp),%rax
  403dbb:	48 89 c7             	mov    %rax,%rdi
  403dbe:	e8 bb fb ff ff       	callq  40397e <_ZSt12__miter_baseIN9__gnu_cxx17__normal_iteratorIPKmSt6vectorImSaImEEEEENSt11_Miter_baseIT_E13iterator_typeES9_>
  403dc3:	48 89 c3             	mov    %rax,%rbx
  403dc6:	48 8b 45 e0          	mov    -0x20(%rbp),%rax
  403dca:	48 89 c7             	mov    %rax,%rdi
  403dcd:	e8 ac fb ff ff       	callq  40397e <_ZSt12__miter_baseIN9__gnu_cxx17__normal_iteratorIPKmSt6vectorImSaImEEEEENSt11_Miter_baseIT_E13iterator_typeES9_>
  403dd2:	48 8b 55 d8          	mov    -0x28(%rbp),%rdx
  403dd6:	48 89 de             	mov    %rbx,%rsi
  403dd9:	48 89 c7             	mov    %rax,%rdi
  403ddc:	e8 0b 01 00 00       	callq  403eec <_ZSt14__copy_move_a2ILb0EN9__gnu_cxx17__normal_iteratorIPKmSt6vectorImSaImEEEEPmET1_T0_SA_S9_>
  403de1:	48 83 c4 28          	add    $0x28,%rsp
  403de5:	5b                   	pop    %rbx
  403de6:	5d                   	pop    %rbp
  403de7:	c3                   	retq   

0000000000403de8 <_ZNSt10_Iter_baseIN9__gnu_cxx17__normal_iteratorIPKmSt6vectorImSaImEEEELb1EE7_S_baseES7_>:
  403de8:	55                   	push   %rbp
  403de9:	48 89 e5             	mov    %rsp,%rbp
  403dec:	48 83 ec 10          	sub    $0x10,%rsp
  403df0:	48 89 7d f0          	mov    %rdi,-0x10(%rbp)
  403df4:	48 8d 45 f0          	lea    -0x10(%rbp),%rax
  403df8:	48 89 c7             	mov    %rax,%rdi
  403dfb:	e8 44 01 00 00       	callq  403f44 <_ZNK9__gnu_cxx17__normal_iteratorIPKmSt6vectorImSaImEEE4baseEv>
  403e00:	48 8b 00             	mov    (%rax),%rax
  403e03:	c9                   	leaveq 
  403e04:	c3                   	retq   

0000000000403e05 <_ZNSt10_Iter_baseIN9__gnu_cxx17__normal_iteratorIPmSt6vectorImSaImEEEELb1EE7_S_baseES6_>:
  403e05:	55                   	push   %rbp
  403e06:	48 89 e5             	mov    %rsp,%rbp
  403e09:	48 83 ec 10          	sub    $0x10,%rsp
  403e0d:	48 89 7d f0          	mov    %rdi,-0x10(%rbp)
  403e11:	48 8d 45 f0          	lea    -0x10(%rbp),%rax
  403e15:	48 89 c7             	mov    %rax,%rdi
  403e18:	e8 75 eb ff ff       	callq  402992 <_ZNK9__gnu_cxx17__normal_iteratorIPmSt6vectorImSaImEEE4baseEv>
  403e1d:	48 8b 00             	mov    (%rax),%rax
  403e20:	c9                   	leaveq 
  403e21:	c3                   	retq   

0000000000403e22 <_ZNSt11__copy_moveILb0ELb1ESt26random_access_iterator_tagE8__copy_mImEEPT_PKS3_S6_S4_>:
  403e22:	55                   	push   %rbp
  403e23:	48 89 e5             	mov    %rsp,%rbp
  403e26:	48 83 ec 30          	sub    $0x30,%rsp
  403e2a:	48 89 7d e8          	mov    %rdi,-0x18(%rbp)
  403e2e:	48 89 75 e0          	mov    %rsi,-0x20(%rbp)
  403e32:	48 89 55 d8          	mov    %rdx,-0x28(%rbp)
  403e36:	48 8b 55 e0          	mov    -0x20(%rbp),%rdx
  403e3a:	48 8b 45 e8          	mov    -0x18(%rbp),%rax
  403e3e:	48 29 c2             	sub    %rax,%rdx
  403e41:	48 89 d0             	mov    %rdx,%rax
  403e44:	48 c1 f8 03          	sar    $0x3,%rax
  403e48:	48 89 45 f8          	mov    %rax,-0x8(%rbp)
  403e4c:	48 83 7d f8 00       	cmpq   $0x0,-0x8(%rbp)
  403e51:	74 1f                	je     403e72 <_ZNSt11__copy_moveILb0ELb1ESt26random_access_iterator_tagE8__copy_mImEEPT_PKS3_S6_S4_+0x50>
  403e53:	48 8b 45 f8          	mov    -0x8(%rbp),%rax
  403e57:	48 8d 14 c5 00 00 00 	lea    0x0(,%rax,8),%rdx
  403e5e:	00 
  403e5f:	48 8b 4d e8          	mov    -0x18(%rbp),%rcx
  403e63:	48 8b 45 d8          	mov    -0x28(%rbp),%rax
  403e67:	48 89 ce             	mov    %rcx,%rsi
  403e6a:	48 89 c7             	mov    %rax,%rdi
  403e6d:	e8 5e cf ff ff       	callq  400dd0 <memmove@plt>
  403e72:	48 8b 45 f8          	mov    -0x8(%rbp),%rax
  403e76:	48 8d 14 c5 00 00 00 	lea    0x0(,%rax,8),%rdx
  403e7d:	00 
  403e7e:	48 8b 45 d8          	mov    -0x28(%rbp),%rax
  403e82:	48 01 d0             	add    %rdx,%rax
  403e85:	c9                   	leaveq 
  403e86:	c3                   	retq   

0000000000403e87 <_ZSt10_ConstructISt6vectorImSaImEES2_EvPT_RKT0_>:
  403e87:	55                   	push   %rbp
  403e88:	48 89 e5             	mov    %rsp,%rbp
  403e8b:	41 55                	push   %r13
  403e8d:	41 54                	push   %r12
  403e8f:	53                   	push   %rbx
  403e90:	48 83 ec 18          	sub    $0x18,%rsp
  403e94:	48 89 7d d8          	mov    %rdi,-0x28(%rbp)
  403e98:	48 89 75 d0          	mov    %rsi,-0x30(%rbp)
  403e9c:	4c 8b 65 d8          	mov    -0x28(%rbp),%r12
  403ea0:	4c 89 e6             	mov    %r12,%rsi
  403ea3:	bf 18 00 00 00       	mov    $0x18,%edi
  403ea8:	e8 f4 d9 ff ff       	callq  4018a1 <_ZnwmPv>
  403ead:	48 89 c3             	mov    %rax,%rbx
  403eb0:	48 85 db             	test   %rbx,%rbx
  403eb3:	74 11                	je     403ec6 <_ZSt10_ConstructISt6vectorImSaImEES2_EvPT_RKT0_+0x3f>
  403eb5:	48 8b 45 d0          	mov    -0x30(%rbp),%rax
  403eb9:	48 89 c6             	mov    %rax,%rsi
  403ebc:	48 89 df             	mov    %rbx,%rdi
  403ebf:	e8 7c ed ff ff       	callq  402c40 <_ZNSt6vectorImSaImEEC1ERKS1_>
  403ec4:	eb 1b                	jmp    403ee1 <_ZSt10_ConstructISt6vectorImSaImEES2_EvPT_RKT0_+0x5a>
  403ec6:	eb 19                	jmp    403ee1 <_ZSt10_ConstructISt6vectorImSaImEES2_EvPT_RKT0_+0x5a>
  403ec8:	49 89 c5             	mov    %rax,%r13
  403ecb:	4c 89 e6             	mov    %r12,%rsi
  403ece:	48 89 df             	mov    %rbx,%rdi
  403ed1:	e8 dd d9 ff ff       	callq  4018b3 <_ZdlPvS_>
  403ed6:	4c 89 e8             	mov    %r13,%rax
  403ed9:	48 89 c7             	mov    %rax,%rdi
  403edc:	e8 9f cf ff ff       	callq  400e80 <_Unwind_Resume@plt>
  403ee1:	48 83 c4 18          	add    $0x18,%rsp
  403ee5:	5b                   	pop    %rbx
  403ee6:	41 5c                	pop    %r12
  403ee8:	41 5d                	pop    %r13
  403eea:	5d                   	pop    %rbp
  403eeb:	c3                   	retq   

0000000000403eec <_ZSt14__copy_move_a2ILb0EN9__gnu_cxx17__normal_iteratorIPKmSt6vectorImSaImEEEEPmET1_T0_SA_S9_>:
  403eec:	55                   	push   %rbp
  403eed:	48 89 e5             	mov    %rsp,%rbp
  403ef0:	41 54                	push   %r12
  403ef2:	53                   	push   %rbx
  403ef3:	48 83 ec 20          	sub    $0x20,%rsp
  403ef7:	48 89 7d e0          	mov    %rdi,-0x20(%rbp)
  403efb:	48 89 75 d0          	mov    %rsi,-0x30(%rbp)
  403eff:	48 89 55 d8          	mov    %rdx,-0x28(%rbp)
  403f03:	48 8b 45 d8          	mov    -0x28(%rbp),%rax
  403f07:	48 89 c7             	mov    %rax,%rdi
  403f0a:	e8 17 e0 ff ff       	callq  401f26 <_ZSt12__niter_baseIPmENSt11_Niter_baseIT_E13iterator_typeES2_>
  403f0f:	49 89 c4             	mov    %rax,%r12
  403f12:	48 8b 45 d0          	mov    -0x30(%rbp),%rax
  403f16:	48 89 c7             	mov    %rax,%rdi
  403f19:	e8 44 fd ff ff       	callq  403c62 <_ZSt12__niter_baseIN9__gnu_cxx17__normal_iteratorIPKmSt6vectorImSaImEEEEENSt11_Niter_baseIT_E13iterator_typeES9_>
  403f1e:	48 89 c3             	mov    %rax,%rbx
  403f21:	48 8b 45 e0          	mov    -0x20(%rbp),%rax
  403f25:	48 89 c7             	mov    %rax,%rdi
  403f28:	e8 35 fd ff ff       	callq  403c62 <_ZSt12__niter_baseIN9__gnu_cxx17__normal_iteratorIPKmSt6vectorImSaImEEEEENSt11_Niter_baseIT_E13iterator_typeES9_>
  403f2d:	4c 89 e2             	mov    %r12,%rdx
  403f30:	48 89 de             	mov    %rbx,%rsi
  403f33:	48 89 c7             	mov    %rax,%rdi
  403f36:	e8 5b fd ff ff       	callq  403c96 <_ZSt13__copy_move_aILb0EPKmPmET1_T0_S4_S3_>
  403f3b:	48 83 c4 20          	add    $0x20,%rsp
  403f3f:	5b                   	pop    %rbx
  403f40:	41 5c                	pop    %r12
  403f42:	5d                   	pop    %rbp
  403f43:	c3                   	retq   

0000000000403f44 <_ZNK9__gnu_cxx17__normal_iteratorIPKmSt6vectorImSaImEEE4baseEv>:
  403f44:	55                   	push   %rbp
  403f45:	48 89 e5             	mov    %rsp,%rbp
  403f48:	48 89 7d f8          	mov    %rdi,-0x8(%rbp)
  403f4c:	48 8b 45 f8          	mov    -0x8(%rbp),%rax
  403f50:	5d                   	pop    %rbp
  403f51:	c3                   	retq   
  403f52:	66 2e 0f 1f 84 00 00 	nopw   %cs:0x0(%rax,%rax,1)
  403f59:	00 00 00 
  403f5c:	0f 1f 40 00          	nopl   0x0(%rax)

0000000000403f60 <__libc_csu_init>:
  403f60:	41 57                	push   %r15
  403f62:	41 89 ff             	mov    %edi,%r15d
  403f65:	41 56                	push   %r14
  403f67:	49 89 f6             	mov    %rsi,%r14
  403f6a:	41 55                	push   %r13
  403f6c:	49 89 d5             	mov    %rdx,%r13
  403f6f:	41 54                	push   %r12
  403f71:	4c 8d 25 70 1e 20 00 	lea    0x201e70(%rip),%r12        # 605de8 <__frame_dummy_init_array_entry>
  403f78:	55                   	push   %rbp
  403f79:	48 8d 2d 78 1e 20 00 	lea    0x201e78(%rip),%rbp        # 605df8 <__init_array_end>
  403f80:	53                   	push   %rbx
  403f81:	4c 29 e5             	sub    %r12,%rbp
  403f84:	31 db                	xor    %ebx,%ebx
  403f86:	48 c1 fd 03          	sar    $0x3,%rbp
  403f8a:	48 83 ec 08          	sub    $0x8,%rsp
  403f8e:	e8 ed cc ff ff       	callq  400c80 <_init>
  403f93:	48 85 ed             	test   %rbp,%rbp
  403f96:	74 1e                	je     403fb6 <__libc_csu_init+0x56>
  403f98:	0f 1f 84 00 00 00 00 	nopl   0x0(%rax,%rax,1)
  403f9f:	00 
  403fa0:	4c 89 ea             	mov    %r13,%rdx
  403fa3:	4c 89 f6             	mov    %r14,%rsi
  403fa6:	44 89 ff             	mov    %r15d,%edi
  403fa9:	41 ff 14 dc          	callq  *(%r12,%rbx,8)
  403fad:	48 83 c3 01          	add    $0x1,%rbx
  403fb1:	48 39 eb             	cmp    %rbp,%rbx
  403fb4:	75 ea                	jne    403fa0 <__libc_csu_init+0x40>
  403fb6:	48 83 c4 08          	add    $0x8,%rsp
  403fba:	5b                   	pop    %rbx
  403fbb:	5d                   	pop    %rbp
  403fbc:	41 5c                	pop    %r12
  403fbe:	41 5d                	pop    %r13
  403fc0:	41 5e                	pop    %r14
  403fc2:	41 5f                	pop    %r15
  403fc4:	c3                   	retq   
  403fc5:	66 66 2e 0f 1f 84 00 	data32 nopw %cs:0x0(%rax,%rax,1)
  403fcc:	00 00 00 00 

0000000000403fd0 <__libc_csu_fini>:
  403fd0:	f3 c3                	repz retq 

Disassembly of section .fini:

0000000000403fd4 <_fini>:
  403fd4:	48 83 ec 08          	sub    $0x8,%rsp
  403fd8:	48 83 c4 08          	add    $0x8,%rsp
  403fdc:	c3                   	retq   
